Certificate:
    Data:
        Version: 3 (0x2)
        Serial Number:
            80:c8:c6:a7:02:af:d4:f7:99:7e:8e:da:65:d4:4d:f1
    Signature Algorithm: sha256WithRSAEncryption
        Issuer: CN=ChangeMe
        Validity
            Not Before: Mar 30 16:24:32 2018 GMT
            Not After : Mar 27 16:24:32 2028 GMT
        Subject: CN=GAVPN2
        Subject Public Key Info:
            Public Key Algorithm: rsaEncryption
                Public-Key: (2048 bit)
                Modulus:
                    00:a9:7f:07:12:dd:75:3b:19:ee:04:ef:54:a4:cb:
                    82:91:ae:a3:52:a0:1b:28:a2:0e:1f:30:27:02:e7:
                    8e:57:6f:26:f5:53:49:e1:b2:2f:6e:40:20:4a:b5:
                    25:85:4b:18:65:df:b2:47:07:81:d3:91:01:6b:50:
                    6a:22:4b:dd:4f:94:0c:0b:d8:b0:fa:13:91:d0:b0:
                    0d:e2:8e:b1:be:b7:55:3c:45:a0:f4:29:1a:d1:90:
                    a3:03:87:59:f2:b5:6a:c4:82:2a:a4:c4:36:0c:ea:
                    5f:fd:e6:53:5f:98:7e:05:48:32:be:47:07:ab:1d:
                    35:c0:5e:b8:c2:04:70:3e:91:56:bc:e0:ce:cc:a4:
                    15:e8:bf:db:9f:44:f6:ca:fd:99:4c:39:6c:79:d5:
                    08:cf:17:aa:e8:96:a9:9f:40:4a:16:22:93:25:d6:
                    f1:7e:aa:35:ce:9c:ce:1a:0e:65:37:e6:45:0b:67:
                    96:22:9d:53:e4:73:f4:25:d5:ce:1a:23:be:ab:89:
                    1d:0d:16:1c:bc:a4:42:28:34:65:10:03:b2:4a:61:
                    84:f6:3b:4a:e0:c8:23:66:d3:79:90:8a:e4:14:76:
                    de:90:36:50:1f:73:f8:08:a1:a8:08:a7:d7:38:95:
                    9b:88:ba:33:1e:ef:42:ca:0a:d3:6e:03:ad:05:1e:
                    e0:35
                Exponent: 65537 (0x10001)
        X509v3 extensions:
            X509v3 Basic Constraints: 
                CA:FALSE
            X509v3 Subject Key Identifier: 
                E9:CD:6A:77:C6:B1:CE:B1:81:58:B9:F4:87:1D:B4:FA:9A:07:CC:FF
            X509v3 Authority Key Identifier: 
                keyid:AD:9F:2E:18:C2:8E:15:00:47:07:DA:B9:45:77:FC:40:86:03:49:DF
                DirName:/CN=ChangeMe
                serial:CF:7B:9B:42:5F:59:AA:1B

            X509v3 Extended Key Usage: 
                TLS Web Client Authentication
            X509v3 Key Usage: 
                Digital Signature
    Signature Algorithm: sha256WithRSAEncryption
         34:b4:29:dc:40:a5:5b:ff:d3:47:81:18:8b:84:4d:d3:85:87:
         a6:a5:77:7c:27:5f:fe:5f:24:0d:a8:cc:32:15:b2:e2:cd:cf:
         1c:70:9f:64:1f:f1:17:16:30:9a:11:02:15:f3:4c:e0:a3:ed:
         2b:63:6c:9a:3f:e2:ea:bc:76:a9:e5:06:33:43:52:6f:6e:3e:
         9a:35:c8:4c:5c:30:34:45:47:d4:55:04:86:59:c0:8a:19:71:
         d8:37:c4:5b:a1:e5:6b:c4:36:5f:f6:47:12:5f:87:a6:1e:ad:
         47:11:8f:74:f0:0b:1f:84:c5:73:19:22:f4:03:55:8f:f1:41:
         2b:f2:1d:81:2e:be:22:16:91:44:48:ec:9c:7f:89:33:7c:88:
         a6:9d:d8:7f:b4:9d:2b:23:1f:1d:43:2d:fd:ef:71:06:96:f1:
         38:66:bc:86:76:cc:74:12:b0:2e:e5:45:34:eb:22:bf:b4:ac:
         cf:82:f5:1d:8d:ce:dc:87:0b:e5:30:f9:7d:ed:70:45:15:94:
         5b:00:6e:36:f0:96:6d:37:d3:60:b7:90:b5:a8:b6:e5:dd:cd:
         65:21:9e:35:3d:18:fc:65:f4:cc:8a:8a:df:5d:3f:d6:ad:c4:
         02:b0:70:8e:10:83:25:59:b9:ea:dc:87:02:a2:f5:dc:05:d4:
         67:ff:c9:7b
-----BEGIN CERTIFICATE-----
MIIDRDCCAiygAwIBAgIRAIDIxqcCr9T3mX6O2mXUTfEwDQYJKoZIhvcNAQELBQAw
EzERMA8GA1UEAwwIQ2hhbmdlTWUwHhcNMTgwMzMwMTYyNDMyWhcNMjgwMzI3MTYy
NDMyWjARMQ8wDQYDVQQDDAZHQVZQTjIwggEiMA0GCSqGSIb3DQEBAQUAA4IBDwAw
ggEKAoIBAQCpfwcS3XU7Ge4E71Sky4KRrqNSoBsoog4fMCcC545Xbyb1U0nhsi9u
QCBKtSWFSxhl37JHB4HTkQFrUGoiS91PlAwL2LD6E5HQsA3ijrG+t1U8RaD0KRrR
kKMDh1nytWrEgiqkxDYM6l/95lNfmH4FSDK+RwerHTXAXrjCBHA+kVa84M7MpBXo
v9ufRPbK/ZlMOWx51QjPF6rolqmfQEoWIpMl1vF+qjXOnM4aDmU35kULZ5YinVPk
c/Ql1c4aI76riR0NFhy8pEIoNGUQA7JKYYT2O0rgyCNm03mQiuQUdt6QNlAfc/gI
oagIp9c4lZuIujMe70LKCtNuA60FHuA1AgMBAAGjgZQwgZEwCQYDVR0TBAIwADAd
BgNVHQ4EFgQU6c1qd8axzrGBWLn0hx20+poHzP8wQwYDVR0jBDwwOoAUrZ8uGMKO
FQBHB9q5RXf8QIYDSd+hF6QVMBMxETAPBgNVBAMMCENoYW5nZU1lggkAz3ubQl9Z
qhswEwYDVR0lBAwwCgYIKwYBBQUHAwIwCwYDVR0PBAQDAgeAMA0GCSqGSIb3DQEB
CwUAA4IBAQA0tCncQKVb/9NHgRiLhE3ThYempXd8J1/+XyQNqMwyFbLizc8ccJ9k
H/EXFjCaEQIV80zgo+0rY2yaP+LqvHap5QYzQ1Jvbj6aNchMXDA0RUfUVQSGWcCK
GXHYN8RboeVrxDZf9kcSX4emHq1HEY908AsfhMVzGSL0A1WP8UEr8h2BLr4iFpFE
SOycf4kzfIimndh/tJ0rIx8dQy3973EGlvE4ZryGdsx0ErAu5UU06yK/tKzPgvUd
jc7chwvlMPl97XBFFZRbAG428JZtN9Ngt5C1qLbl3c1lIZ41PRj8ZfTMiorfXT/W
rcQCsHCOEIMlWbnq3IcCovXcBdRn/8l7
-----END CERTIFICATE-----
