Certificate:
    Data:
        Version: 3 (0x2)
        Serial Number:
            34:b0:a4:2b:71:0e:74:98:a4:f8:01:72:45:bd:9f:38
    Signature Algorithm: sha256WithRSAEncryption
        Issuer: CN=ChangeMe
        Validity
            Not Before: Apr 23 19:47:15 2018 GMT
            Not After : Apr 20 19:47:15 2028 GMT
        Subject: CN=myvpn-200.1.1.180
        Subject Public Key Info:
            Public Key Algorithm: rsaEncryption
                Public-Key: (2048 bit)
                Modulus:
                    00:e7:b7:82:7a:42:73:e6:15:0c:2a:e2:13:b0:31:
                    85:be:2e:32:61:15:5c:9b:5a:f4:2d:85:18:80:a1:
                    ee:92:b5:34:a9:4e:ef:f4:5f:2e:1c:e1:94:ff:67:
                    62:b4:77:fd:6a:2c:2f:02:63:75:51:7a:67:f6:e7:
                    52:d6:e2:14:b3:60:88:bf:75:3a:66:29:c7:28:c5:
                    1b:2f:9d:93:1c:b7:a1:af:3d:d4:1f:91:94:88:ed:
                    69:c5:40:0d:d3:e5:f1:81:ae:9f:36:5a:11:62:8e:
                    b8:62:c3:11:ce:1e:78:7a:7a:01:a3:1c:96:68:95:
                    e3:c7:35:a3:99:d6:e9:f6:0d:78:4b:59:2f:b0:c3:
                    b5:cb:5a:88:e1:23:a6:74:f6:53:c5:8f:9e:85:b7:
                    8c:dc:17:7b:81:08:62:55:8b:db:eb:b4:38:0d:88:
                    1c:93:7d:84:a8:13:4a:51:3a:f8:69:22:1b:e2:93:
                    83:39:fc:51:6f:2c:81:40:60:7f:1a:8c:27:d7:1c:
                    b9:53:03:57:34:38:58:1c:5c:ed:39:7b:4b:f2:e0:
                    01:60:b1:9d:7c:b5:ef:8c:46:88:50:9d:14:1c:9c:
                    33:62:11:aa:35:93:cd:a2:9e:e9:36:45:23:b2:24:
                    3d:bd:26:15:71:54:cc:cc:fb:40:49:01:15:62:3f:
                    cf:77
                Exponent: 65537 (0x10001)
        X509v3 extensions:
            X509v3 Basic Constraints: 
                CA:FALSE
            X509v3 Subject Key Identifier: 
                DA:42:13:8B:EF:BE:0A:C6:27:2E:88:21:12:21:4B:3D:7C:CC:F0:50
            X509v3 Authority Key Identifier: 
                keyid:AD:9F:2E:18:C2:8E:15:00:47:07:DA:B9:45:77:FC:40:86:03:49:DF
                DirName:/CN=ChangeMe
                serial:CF:7B:9B:42:5F:59:AA:1B

            X509v3 Extended Key Usage: 
                TLS Web Client Authentication
            X509v3 Key Usage: 
                Digital Signature
    Signature Algorithm: sha256WithRSAEncryption
         c3:a0:4a:cc:7f:cf:37:4c:85:3b:cc:aa:73:f4:8b:8c:37:6d:
         1e:00:36:78:68:6e:f7:29:19:72:9c:e7:e2:ef:62:bd:e9:a7:
         81:3d:3f:bb:18:2d:c5:3c:a2:9a:dc:6f:cb:82:7d:6d:9a:70:
         26:57:81:d9:74:7c:7f:8f:4c:16:b5:1a:5d:cf:ca:f4:8f:54:
         e0:e4:5a:30:4f:2e:c5:2e:f2:20:bd:1b:1f:0e:d0:b2:0f:45:
         f1:2a:4b:d1:94:8d:a3:d8:d3:03:9c:1c:1b:f1:7f:94:c6:d1:
         2b:64:71:93:ea:d4:33:d6:81:83:c1:f0:e2:83:68:c7:01:7c:
         24:9c:79:7e:24:68:59:e1:d8:47:94:b5:dc:67:f9:34:55:18:
         de:c7:c2:55:c7:0a:53:f4:fd:9d:d0:be:ba:08:4c:40:b2:6b:
         7a:0a:53:8b:71:5d:2a:e5:91:25:e3:80:29:12:1a:58:3e:e2:
         69:00:b6:22:e8:1d:ee:86:25:42:f8:bc:2f:52:00:74:71:c6:
         d1:9a:6f:c1:c8:62:60:00:08:6c:27:6e:40:cf:33:3f:a8:db:
         1a:d3:1b:60:26:a8:86:62:a1:30:4f:69:4e:bc:62:93:04:ac:
         81:49:82:d7:18:7b:2b:c2:c7:52:6f:97:28:e4:f6:34:14:f3:
         77:9c:63:7c
-----BEGIN CERTIFICATE-----
MIIDTjCCAjagAwIBAgIQNLCkK3EOdJik+AFyRb2fODANBgkqhkiG9w0BAQsFADAT
MREwDwYDVQQDDAhDaGFuZ2VNZTAeFw0xODA0MjMxOTQ3MTVaFw0yODA0MjAxOTQ3
MTVaMBwxGjAYBgNVBAMMEW15dnBuLTIwMC4xLjEuMTgwMIIBIjANBgkqhkiG9w0B
AQEFAAOCAQ8AMIIBCgKCAQEA57eCekJz5hUMKuITsDGFvi4yYRVcm1r0LYUYgKHu
krU0qU7v9F8uHOGU/2ditHf9aiwvAmN1UXpn9udS1uIUs2CIv3U6ZinHKMUbL52T
HLehrz3UH5GUiO1pxUAN0+Xxga6fNloRYo64YsMRzh54enoBoxyWaJXjxzWjmdbp
9g14S1kvsMO1y1qI4SOmdPZTxY+ehbeM3Bd7gQhiVYvb67Q4DYgck32EqBNKUTr4
aSIb4pODOfxRbyyBQGB/Gown1xy5UwNXNDhYHFztOXtL8uABYLGdfLXvjEaIUJ0U
HJwzYhGqNZPNop7pNkUjsiQ9vSYVcVTMzPtASQEVYj/PdwIDAQABo4GUMIGRMAkG
A1UdEwQCMAAwHQYDVR0OBBYEFNpCE4vvvgrGJy6IIRIhSz18zPBQMEMGA1UdIwQ8
MDqAFK2fLhjCjhUARwfauUV3/ECGA0nfoRekFTATMREwDwYDVQQDDAhDaGFuZ2VN
ZYIJAM97m0JfWaobMBMGA1UdJQQMMAoGCCsGAQUFBwMCMAsGA1UdDwQEAwIHgDAN
BgkqhkiG9w0BAQsFAAOCAQEAw6BKzH/PN0yFO8yqc/SLjDdtHgA2eGhu9ykZcpzn
4u9ivemngT0/uxgtxTyimtxvy4J9bZpwJleB2XR8f49MFrUaXc/K9I9U4ORaME8u
xS7yIL0bHw7Qsg9F8SpL0ZSNo9jTA5wcG/F/lMbRK2Rxk+rUM9aBg8Hw4oNoxwF8
JJx5fiRoWeHYR5S13Gf5NFUY3sfCVccKU/T9ndC+ughMQLJregpTi3FdKuWRJeOA
KRIaWD7iaQC2Iugd7oYlQvi8L1IAdHHG0ZpvwchiYAAIbCduQM8zP6jbGtMbYCao
hmKhME9pTrxikwSsgUmC1xh7K8LHUm+XKOT2NBTzd5xjfA==
-----END CERTIFICATE-----
