Certificate:
    Data:
        Version: 3 (0x2)
        Serial Number:
            7d:5d:25:51:b1:47:c7:e0:bb:7c:0f:62:5f:27:f6:c9
    Signature Algorithm: sha256WithRSAEncryption
        Issuer: CN=ChangeMe
        Validity
            Not Before: Apr 20 15:27:12 2018 GMT
            Not After : Apr 17 15:27:12 2028 GMT
        Subject: CN=myvpn-200.1.1.13
        Subject Public Key Info:
            Public Key Algorithm: rsaEncryption
                Public-Key: (2048 bit)
                Modulus:
                    00:a7:de:00:68:bf:fd:42:2f:42:ec:17:86:54:66:
                    15:04:fd:6d:cd:c6:1c:b3:8d:0c:69:6f:82:9b:71:
                    98:27:8d:ed:65:e3:eb:1c:da:17:e6:bb:06:d4:90:
                    34:67:d9:75:fd:95:68:c7:d8:ea:de:1b:c2:27:1d:
                    3e:40:1c:a8:b7:30:10:82:6d:d3:48:7a:ee:7f:4a:
                    85:74:09:5e:a9:86:84:0a:ed:e3:0b:1e:fc:31:46:
                    26:06:4d:e3:bd:aa:17:e0:bf:07:14:08:69:ef:9d:
                    88:52:2f:0b:7a:aa:ad:ad:6c:45:e8:ba:c6:b0:f4:
                    2f:cd:68:8d:0b:ce:04:c7:d3:94:b0:f7:76:2e:69:
                    d2:1b:05:8a:7e:9c:ea:cb:06:ff:5b:01:4c:69:26:
                    a7:7a:c0:6c:43:81:6b:42:65:67:68:26:76:8d:6b:
                    4c:1c:05:01:e9:2b:e8:62:e5:d0:9a:44:ee:e0:a5:
                    f0:28:53:73:32:e7:0c:e9:18:c3:80:8f:a9:ea:49:
                    6f:ea:29:b3:f5:75:9f:3d:3f:7a:be:f9:6c:dc:96:
                    da:17:22:c5:1a:f4:41:8a:44:82:a4:d0:c1:09:47:
                    b1:3d:81:6b:db:cc:00:b4:f9:b8:2a:2b:a9:9e:ed:
                    72:9b:5e:9d:35:c9:9f:0e:b5:b8:37:33:8b:78:aa:
                    06:63
                Exponent: 65537 (0x10001)
        X509v3 extensions:
            X509v3 Basic Constraints: 
                CA:FALSE
            X509v3 Subject Key Identifier: 
                94:DC:4E:B7:FA:70:D2:32:DC:37:73:90:BE:55:31:16:A7:0C:8B:A0
            X509v3 Authority Key Identifier: 
                keyid:AD:9F:2E:18:C2:8E:15:00:47:07:DA:B9:45:77:FC:40:86:03:49:DF
                DirName:/CN=ChangeMe
                serial:CF:7B:9B:42:5F:59:AA:1B

            X509v3 Extended Key Usage: 
                TLS Web Client Authentication
            X509v3 Key Usage: 
                Digital Signature
    Signature Algorithm: sha256WithRSAEncryption
         2e:0a:83:d5:ef:62:ea:34:b6:5f:cb:e2:8e:f7:7f:23:46:71:
         7b:3b:5b:3c:29:7c:90:28:35:6b:72:7f:21:54:d4:43:df:b0:
         cf:b4:96:c3:e5:d5:22:49:6d:a2:60:05:33:b2:9c:e8:7b:02:
         6b:27:d3:bf:68:c7:e4:b4:d8:72:8d:7a:30:7d:cc:ac:23:69:
         5b:4f:ec:54:9e:98:05:5a:ab:b8:81:7a:53:c5:64:5e:13:1b:
         f3:62:9e:80:9d:83:9c:ff:19:8f:7f:d0:fd:2f:9f:28:63:e5:
         19:db:29:3e:e9:c9:ea:0f:ed:f4:90:5c:b9:74:23:c1:df:0a:
         4a:e6:82:c1:98:8a:3f:6f:1a:54:71:82:df:1d:6f:0c:07:48:
         8d:81:8b:39:cb:bd:8a:80:0e:3e:32:d3:af:f3:99:ad:3c:93:
         f2:da:4f:e5:b6:3e:a2:d8:2b:f2:02:6b:d0:ba:5c:aa:92:93:
         e9:6b:d7:df:25:b6:82:43:7e:ac:66:fd:a2:96:92:11:f7:f3:
         ec:21:bf:85:11:b0:aa:3e:f0:91:2a:13:ff:6f:c5:c6:b8:7a:
         10:dd:ca:bf:56:47:a2:96:25:0a:42:a4:02:3e:af:b7:e7:d4:
         2b:1b:21:0e:8c:c1:ed:bb:9d:c4:86:a3:b6:7b:65:26:16:a8:
         10:41:ae:9d
-----BEGIN CERTIFICATE-----
MIIDTTCCAjWgAwIBAgIQfV0lUbFHx+C7fA9iXyf2yTANBgkqhkiG9w0BAQsFADAT
MREwDwYDVQQDDAhDaGFuZ2VNZTAeFw0xODA0MjAxNTI3MTJaFw0yODA0MTcxNTI3
MTJaMBsxGTAXBgNVBAMMEG15dnBuLTIwMC4xLjEuMTMwggEiMA0GCSqGSIb3DQEB
AQUAA4IBDwAwggEKAoIBAQCn3gBov/1CL0LsF4ZUZhUE/W3NxhyzjQxpb4KbcZgn
je1l4+sc2hfmuwbUkDRn2XX9lWjH2OreG8InHT5AHKi3MBCCbdNIeu5/SoV0CV6p
hoQK7eMLHvwxRiYGTeO9qhfgvwcUCGnvnYhSLwt6qq2tbEXousaw9C/NaI0LzgTH
05Sw93YuadIbBYp+nOrLBv9bAUxpJqd6wGxDgWtCZWdoJnaNa0wcBQHpK+hi5dCa
RO7gpfAoU3My5wzpGMOAj6nqSW/qKbP1dZ89P3q++WzcltoXIsUa9EGKRIKk0MEJ
R7E9gWvbzAC0+bgqK6me7XKbXp01yZ8Otbg3M4t4qgZjAgMBAAGjgZQwgZEwCQYD
VR0TBAIwADAdBgNVHQ4EFgQUlNxOt/pw0jLcN3OQvlUxFqcMi6AwQwYDVR0jBDww
OoAUrZ8uGMKOFQBHB9q5RXf8QIYDSd+hF6QVMBMxETAPBgNVBAMMCENoYW5nZU1l
ggkAz3ubQl9ZqhswEwYDVR0lBAwwCgYIKwYBBQUHAwIwCwYDVR0PBAQDAgeAMA0G
CSqGSIb3DQEBCwUAA4IBAQAuCoPV72LqNLZfy+KO938jRnF7O1s8KXyQKDVrcn8h
VNRD37DPtJbD5dUiSW2iYAUzspzoewJrJ9O/aMfktNhyjXowfcysI2lbT+xUnpgF
Wqu4gXpTxWReExvzYp6AnYOc/xmPf9D9L58oY+UZ2yk+6cnqD+30kFy5dCPB3wpK
5oLBmIo/bxpUcYLfHW8MB0iNgYs5y72KgA4+MtOv85mtPJPy2k/ltj6i2CvyAmvQ
ulyqkpPpa9ffJbaCQ36sZv2ilpIR9/PsIb+FEbCqPvCRKhP/b8XGuHoQ3cq/Vkei
liUKQqQCPq+359QrGyEOjMHtu53EhqO2e2UmFqgQQa6d
-----END CERTIFICATE-----
