Certificate:
    Data:
        Version: 3 (0x2)
        Serial Number:
            88:4d:b8:d6:82:8c:f0:db:0e:c8:82:91:11:9c:61:cf
    Signature Algorithm: sha256WithRSAEncryption
        Issuer: CN=ChangeMe
        Validity
            Not Before: May  3 19:27:32 2018 GMT
            Not After : Apr 30 19:27:32 2028 GMT
        Subject: CN=myvpn-200.1.1.15-HS110
        Subject Public Key Info:
            Public Key Algorithm: rsaEncryption
                Public-Key: (2048 bit)
                Modulus:
                    00:af:58:68:56:6c:c8:d1:2a:e6:8c:2f:c8:a9:1c:
                    1e:38:95:bb:46:91:60:76:a9:49:b5:13:e1:14:e0:
                    05:2c:40:88:67:05:47:a1:68:38:71:59:38:a3:ed:
                    8c:3f:ec:d8:3e:67:24:17:dc:89:35:01:9f:91:35:
                    f9:1f:19:3b:b8:b8:3f:ad:ea:96:c5:3e:e6:9d:79:
                    48:94:d1:78:3b:11:b5:dc:97:06:47:b6:a6:90:22:
                    83:02:7c:0c:98:54:36:3a:45:bc:44:a2:ed:c8:c1:
                    66:a0:f5:9f:fb:38:c7:21:28:4d:d6:08:aa:f1:ca:
                    c5:54:5e:75:ba:8b:63:af:b5:ce:c8:5d:5c:86:3f:
                    75:61:bc:ff:1e:30:96:7d:a6:bb:2f:08:d0:70:be:
                    cf:31:68:52:cd:2e:fa:98:63:38:61:02:df:0b:d3:
                    94:48:ae:9e:4d:1a:d5:f6:bc:06:4e:82:b2:7d:d5:
                    12:cb:00:cf:4c:56:56:18:28:68:7e:cc:04:c9:22:
                    36:9e:c7:3d:15:f6:80:e7:32:5b:c0:be:38:7c:ff:
                    30:da:78:22:8d:69:60:46:98:a1:ab:71:08:84:fa:
                    8e:32:30:45:04:80:ba:27:16:1b:84:b5:ab:21:b1:
                    09:9a:fd:33:4b:f4:d9:c2:18:35:bc:90:bd:0e:1f:
                    96:1f
                Exponent: 65537 (0x10001)
        X509v3 extensions:
            X509v3 Basic Constraints: 
                CA:FALSE
            X509v3 Subject Key Identifier: 
                97:E6:D7:09:10:B6:41:9A:51:27:5D:B3:52:46:9C:63:D0:5D:DE:47
            X509v3 Authority Key Identifier: 
                keyid:AD:9F:2E:18:C2:8E:15:00:47:07:DA:B9:45:77:FC:40:86:03:49:DF
                DirName:/CN=ChangeMe
                serial:CF:7B:9B:42:5F:59:AA:1B

            X509v3 Extended Key Usage: 
                TLS Web Client Authentication
            X509v3 Key Usage: 
                Digital Signature
    Signature Algorithm: sha256WithRSAEncryption
         02:2c:4e:df:9d:b7:d9:02:f3:ae:e7:93:71:ce:bf:b2:31:5d:
         2c:d8:7a:fa:44:ef:cf:4e:3a:36:5a:16:ab:a2:bd:1e:34:95:
         16:63:06:b4:76:ff:cc:02:d5:02:51:62:db:f5:3e:e4:22:e4:
         75:83:37:c4:1c:93:0a:37:ba:61:f3:ae:f5:fc:02:8c:49:7f:
         52:bb:82:ef:14:f6:23:a6:1c:37:ed:e6:b1:7c:75:bc:c7:6e:
         f5:69:de:14:ae:24:ca:ad:78:0d:e1:70:1d:03:e3:13:26:38:
         da:71:1a:cf:0a:b4:47:68:1c:fe:fc:8c:42:c4:45:bc:32:7b:
         98:b9:96:08:76:4d:d8:ea:46:39:e3:9d:92:84:3f:a4:e8:b9:
         f9:64:49:d7:17:21:d7:8f:50:c9:8e:06:ec:62:58:1c:63:97:
         66:90:a8:4a:f2:4b:7c:07:bd:02:b6:13:cd:79:78:fc:66:9f:
         99:15:1d:50:0e:e7:bb:5a:70:e1:31:f9:aa:54:19:0f:7e:65:
         ea:55:87:8a:cc:d1:d5:a3:e0:f3:22:39:4a:e9:1b:33:0c:bf:
         ee:a4:ce:76:d6:e2:d7:60:37:e7:0d:56:18:1e:46:12:7d:b3:
         33:5d:8f:24:26:13:8e:2c:72:59:d8:b0:a8:97:04:c1:f2:0a:
         4e:59:cc:1c
-----BEGIN CERTIFICATE-----
MIIDVDCCAjygAwIBAgIRAIhNuNaCjPDbDsiCkRGcYc8wDQYJKoZIhvcNAQELBQAw
EzERMA8GA1UEAwwIQ2hhbmdlTWUwHhcNMTgwNTAzMTkyNzMyWhcNMjgwNDMwMTky
NzMyWjAhMR8wHQYDVQQDDBZteXZwbi0yMDAuMS4xLjE1LUhTMTEwMIIBIjANBgkq
hkiG9w0BAQEFAAOCAQ8AMIIBCgKCAQEAr1hoVmzI0SrmjC/IqRweOJW7RpFgdqlJ
tRPhFOAFLECIZwVHoWg4cVk4o+2MP+zYPmckF9yJNQGfkTX5Hxk7uLg/reqWxT7m
nXlIlNF4OxG13JcGR7amkCKDAnwMmFQ2OkW8RKLtyMFmoPWf+zjHIShN1giq8crF
VF51uotjr7XOyF1chj91Ybz/HjCWfaa7LwjQcL7PMWhSzS76mGM4YQLfC9OUSK6e
TRrV9rwGToKyfdUSywDPTFZWGChofswEySI2nsc9FfaA5zJbwL44fP8w2ngijWlg
Rpihq3EIhPqOMjBFBIC6JxYbhLWrIbEJmv0zS/TZwhg1vJC9Dh+WHwIDAQABo4GU
MIGRMAkGA1UdEwQCMAAwHQYDVR0OBBYEFJfm1wkQtkGaUSdds1JGnGPQXd5HMEMG
A1UdIwQ8MDqAFK2fLhjCjhUARwfauUV3/ECGA0nfoRekFTATMREwDwYDVQQDDAhD
aGFuZ2VNZYIJAM97m0JfWaobMBMGA1UdJQQMMAoGCCsGAQUFBwMCMAsGA1UdDwQE
AwIHgDANBgkqhkiG9w0BAQsFAAOCAQEAAixO35232QLzrueTcc6/sjFdLNh6+kTv
z046NloWq6K9HjSVFmMGtHb/zALVAlFi2/U+5CLkdYM3xByTCje6YfOu9fwCjEl/
UruC7xT2I6YcN+3msXx1vMdu9WneFK4kyq14DeFwHQPjEyY42nEazwq0R2gc/vyM
QsRFvDJ7mLmWCHZN2OpGOeOdkoQ/pOi5+WRJ1xch149QyY4G7GJYHGOXZpCoSvJL
fAe9ArYTzXl4/GafmRUdUA7nu1pw4TH5qlQZD35l6lWHiszR1aPg8yI5SukbMwy/
7qTOdtbi12A35w1WGB5GEn2zM12PJCYTjixyWdiwqJcEwfIKTlnMHA==
-----END CERTIFICATE-----
