Certificate:
    Data:
        Version: 3 (0x2)
        Serial Number:
            61:fa:43:83:56:d2:06:57:6c:c4:9a:93:59:b0:43:3c
    Signature Algorithm: sha256WithRSAEncryption
        Issuer: CN=ChangeMe
        Validity
            Not Before: Apr 20 14:56:27 2018 GMT
            Not After : Apr 17 14:56:27 2028 GMT
        Subject: CN=myvpn-200.1.1.200
        Subject Public Key Info:
            Public Key Algorithm: rsaEncryption
                Public-Key: (2048 bit)
                Modulus:
                    00:bb:07:18:53:2b:94:36:29:53:ce:dd:9b:9f:45:
                    e7:b2:5e:8a:66:69:5d:91:d5:4d:bb:0f:27:a8:7d:
                    90:8d:53:68:cf:1c:4b:36:78:a8:56:38:c2:d4:15:
                    56:8e:bb:53:fb:0a:0a:7d:4c:d4:d2:34:50:96:bc:
                    82:ce:d5:a9:02:af:f6:4c:79:96:85:ef:7b:13:a0:
                    ab:f7:3e:03:13:a1:64:49:14:88:0f:90:e6:02:5b:
                    22:e5:f0:0e:42:3b:46:e4:77:9b:6b:12:97:f2:3b:
                    ec:d6:f7:78:e0:78:95:43:ae:96:b7:37:31:5e:ea:
                    50:cf:ef:fe:db:c9:95:7d:51:f0:02:22:51:61:9b:
                    a7:a5:e2:70:0d:55:33:81:47:ae:28:83:50:a3:ad:
                    bb:85:f8:6e:12:ac:52:0b:fc:9a:b6:84:2b:0b:ba:
                    ca:21:78:ad:c6:6b:b0:3b:eb:0d:fd:87:81:a4:42:
                    69:95:e9:73:d1:a7:21:3b:e6:0e:d8:f2:20:e4:f8:
                    92:4e:fb:14:63:91:25:8a:eb:a9:18:c4:c7:41:ff:
                    66:cd:25:e6:bb:91:75:f2:e8:fa:c0:9a:be:cf:ac:
                    63:4f:01:f7:46:f7:1a:c5:fa:43:de:b3:a8:c9:e7:
                    e8:a9:d6:77:87:f6:33:1f:58:63:e4:2a:da:e2:43:
                    90:59
                Exponent: 65537 (0x10001)
        X509v3 extensions:
            X509v3 Basic Constraints: 
                CA:FALSE
            X509v3 Subject Key Identifier: 
                32:44:C6:09:86:EF:39:0F:89:D9:3D:5B:D5:F9:91:F8:92:21:30:05
            X509v3 Authority Key Identifier: 
                keyid:AD:9F:2E:18:C2:8E:15:00:47:07:DA:B9:45:77:FC:40:86:03:49:DF
                DirName:/CN=ChangeMe
                serial:CF:7B:9B:42:5F:59:AA:1B

            X509v3 Extended Key Usage: 
                TLS Web Client Authentication
            X509v3 Key Usage: 
                Digital Signature
    Signature Algorithm: sha256WithRSAEncryption
         b7:23:94:f8:82:22:36:86:18:89:7c:8c:3c:4c:85:a3:cf:34:
         5e:ab:6a:e1:9b:d1:f9:bb:13:9f:42:94:a8:21:63:21:1f:85:
         aa:06:e3:76:21:38:0d:11:81:f7:2f:ad:42:1d:4c:fb:0f:b6:
         92:53:7d:a2:38:6c:68:0b:9d:95:84:5e:08:81:ff:88:a7:94:
         0b:d6:ff:81:ae:00:50:8c:b7:35:53:13:63:dd:a7:ed:94:f3:
         ea:15:5e:5a:82:60:cb:8e:d2:7f:0a:a5:1e:5c:b4:ec:e1:bf:
         b8:7d:24:76:05:d6:8d:39:7c:0c:7a:e4:5c:e4:a1:d1:49:80:
         82:b6:d7:ab:3a:1d:fa:53:42:82:a4:0f:b2:ea:b5:ec:23:0c:
         9b:c4:2c:4c:fb:8e:fb:e0:58:75:f7:9d:b6:b4:6d:8b:db:27:
         42:0e:67:40:4a:41:b7:3b:e0:1d:c0:14:a7:21:5d:fe:0b:41:
         61:85:02:0f:78:da:48:11:97:a5:ca:79:e3:74:5a:ca:51:24:
         3f:e5:7a:a5:8f:07:9f:4d:6f:5b:dd:c3:f6:ef:19:e8:00:ab:
         3e:60:8e:53:4b:d8:6e:a3:49:11:29:1b:2e:75:5a:73:31:85:
         6f:c7:c5:11:82:cd:96:e6:de:0a:7a:d8:2b:b6:d7:85:23:4b:
         91:b4:f8:2d
-----BEGIN CERTIFICATE-----
MIIDTjCCAjagAwIBAgIQYfpDg1bSBldsxJqTWbBDPDANBgkqhkiG9w0BAQsFADAT
MREwDwYDVQQDDAhDaGFuZ2VNZTAeFw0xODA0MjAxNDU2MjdaFw0yODA0MTcxNDU2
MjdaMBwxGjAYBgNVBAMMEW15dnBuLTIwMC4xLjEuMjAwMIIBIjANBgkqhkiG9w0B
AQEFAAOCAQ8AMIIBCgKCAQEAuwcYUyuUNilTzt2bn0Xnsl6KZmldkdVNuw8nqH2Q
jVNozxxLNnioVjjC1BVWjrtT+woKfUzU0jRQlryCztWpAq/2THmWhe97E6Cr9z4D
E6FkSRSID5DmAlsi5fAOQjtG5HebaxKX8jvs1vd44HiVQ66WtzcxXupQz+/+28mV
fVHwAiJRYZunpeJwDVUzgUeuKINQo627hfhuEqxSC/yatoQrC7rKIXitxmuwO+sN
/YeBpEJplelz0achO+YO2PIg5PiSTvsUY5EliuupGMTHQf9mzSXmu5F18uj6wJq+
z6xjTwH3RvcaxfpD3rOoyefoqdZ3h/YzH1hj5Cra4kOQWQIDAQABo4GUMIGRMAkG
A1UdEwQCMAAwHQYDVR0OBBYEFDJExgmG7zkPidk9W9X5kfiSITAFMEMGA1UdIwQ8
MDqAFK2fLhjCjhUARwfauUV3/ECGA0nfoRekFTATMREwDwYDVQQDDAhDaGFuZ2VN
ZYIJAM97m0JfWaobMBMGA1UdJQQMMAoGCCsGAQUFBwMCMAsGA1UdDwQEAwIHgDAN
BgkqhkiG9w0BAQsFAAOCAQEAtyOU+IIiNoYYiXyMPEyFo880Xqtq4ZvR+bsTn0KU
qCFjIR+FqgbjdiE4DRGB9y+tQh1M+w+2klN9ojhsaAudlYReCIH/iKeUC9b/ga4A
UIy3NVMTY92n7ZTz6hVeWoJgy47SfwqlHly07OG/uH0kdgXWjTl8DHrkXOSh0UmA
grbXqzod+lNCgqQPsuq17CMMm8QsTPuO++BYdfedtrRti9snQg5nQEpBtzvgHcAU
pyFd/gtBYYUCD3jaSBGXpcp543RaylEkP+V6pY8Hn01vW93D9u8Z6ACrPmCOU0vY
bqNJESkbLnVaczGFb8fFEYLNlubeCnrYK7bXhSNLkbT4LQ==
-----END CERTIFICATE-----
