Certificate:
    Data:
        Version: 3 (0x2)
        Serial Number:
            26:07:62:f7:64:07:84:2f:c9:02:2b:7e:10:57:e7:0a
    Signature Algorithm: sha256WithRSAEncryption
        Issuer: CN=ChangeMe
        Validity
            Not Before: Apr 27 17:03:45 2018 GMT
            Not After : Apr 24 17:03:45 2028 GMT
        Subject: CN=myvpn-200.1.1.103-Arnauds-MBP
        Subject Public Key Info:
            Public Key Algorithm: rsaEncryption
                Public-Key: (2048 bit)
                Modulus:
                    00:a2:fd:1a:b0:5f:38:5a:85:1d:fa:2c:46:c7:6d:
                    d1:f4:18:6b:e9:11:71:7e:b6:74:d7:9d:18:51:96:
                    e0:52:59:f3:36:78:3e:25:10:75:fe:31:85:c9:49:
                    87:9d:87:5c:08:f2:f2:1e:09:9a:06:e2:cc:96:de:
                    d6:1c:ae:e1:49:10:ab:e5:af:36:a3:ba:6a:bc:b2:
                    d9:d0:24:40:7e:77:39:ac:ab:04:28:6a:97:42:74:
                    2d:d4:e5:3b:19:2f:c4:ee:f2:8b:57:38:3f:de:ff:
                    02:95:1e:8d:7e:57:32:c7:1f:be:86:6c:98:c3:18:
                    7c:61:40:22:8c:40:b6:55:ae:02:98:e4:db:a1:25:
                    92:32:bc:07:0e:86:f6:62:8b:4a:eb:b6:2b:b8:c5:
                    a4:b9:72:e1:1d:2e:44:6b:88:fa:34:fc:d9:6f:25:
                    94:a9:dd:c0:bf:b5:0c:38:84:14:ce:9e:8c:f6:15:
                    e6:9a:bc:4a:e8:61:83:95:59:a7:a9:49:de:81:fc:
                    ad:ae:85:ba:bb:08:ba:67:be:ba:33:3c:71:41:3d:
                    77:49:33:cf:90:9b:8b:01:67:02:96:51:c7:3f:b1:
                    e1:cb:51:1a:1b:6a:d1:4a:55:1b:b2:f8:05:45:32:
                    89:14:0f:b0:e0:f7:32:c8:3a:fc:0c:04:85:60:62:
                    a3:9d
                Exponent: 65537 (0x10001)
        X509v3 extensions:
            X509v3 Basic Constraints: 
                CA:FALSE
            X509v3 Subject Key Identifier: 
                EF:01:DB:B4:B9:1B:E0:7D:C3:2D:DE:FF:28:19:FA:E8:42:5F:C7:4A
            X509v3 Authority Key Identifier: 
                keyid:AD:9F:2E:18:C2:8E:15:00:47:07:DA:B9:45:77:FC:40:86:03:49:DF
                DirName:/CN=ChangeMe
                serial:CF:7B:9B:42:5F:59:AA:1B

            X509v3 Extended Key Usage: 
                TLS Web Client Authentication
            X509v3 Key Usage: 
                Digital Signature
    Signature Algorithm: sha256WithRSAEncryption
         cc:e2:ad:b0:38:53:39:d5:10:3a:9e:db:64:29:0c:ef:0e:a8:
         40:27:b5:e9:36:92:83:6b:bb:27:f2:61:b9:67:2f:a8:17:3d:
         25:9c:47:f9:ee:3c:c8:6a:68:20:dc:e3:62:c6:6d:00:f7:85:
         96:f3:16:8a:5b:67:cd:c3:22:e3:2e:7a:cc:95:0f:1a:2d:ee:
         a8:f7:a4:c2:4d:17:ae:84:f0:d2:b8:07:58:59:88:42:0d:42:
         fd:98:62:eb:77:09:98:d7:e0:a4:7c:44:4f:fd:3d:53:a3:83:
         85:f7:53:55:40:b4:43:6c:24:c7:16:ef:bc:b3:6b:1b:e1:e9:
         ad:c0:67:01:95:fc:a9:8c:75:c6:c9:40:a7:7b:fd:93:53:e0:
         b9:8d:a4:f7:57:8f:87:63:79:49:55:87:ee:7b:55:fe:93:10:
         e2:c6:48:66:c9:2c:0d:5d:4f:94:82:8a:7d:8d:3e:54:16:06:
         4f:d6:2f:b8:8e:88:22:26:6c:2b:a7:4e:9a:a0:da:4f:53:a1:
         02:db:5b:de:b6:83:76:3d:e5:12:1c:d0:d2:75:a3:da:7a:da:
         c0:4d:e0:04:7f:23:a1:73:c6:aa:68:4a:42:58:94:33:37:84:
         a9:08:0c:e9:0e:ed:b9:dc:46:ed:70:b1:43:75:4f:08:0e:44:
         64:15:8b:32
-----BEGIN CERTIFICATE-----
MIIDWjCCAkKgAwIBAgIQJgdi92QHhC/JAit+EFfnCjANBgkqhkiG9w0BAQsFADAT
MREwDwYDVQQDDAhDaGFuZ2VNZTAeFw0xODA0MjcxNzAzNDVaFw0yODA0MjQxNzAz
NDVaMCgxJjAkBgNVBAMMHW15dnBuLTIwMC4xLjEuMTAzLUFybmF1ZHMtTUJQMIIB
IjANBgkqhkiG9w0BAQEFAAOCAQ8AMIIBCgKCAQEAov0asF84WoUd+ixGx23R9Bhr
6RFxfrZ0150YUZbgUlnzNng+JRB1/jGFyUmHnYdcCPLyHgmaBuLMlt7WHK7hSRCr
5a82o7pqvLLZ0CRAfnc5rKsEKGqXQnQt1OU7GS/E7vKLVzg/3v8ClR6Nflcyxx++
hmyYwxh8YUAijEC2Va4CmOTboSWSMrwHDob2YotK67YruMWkuXLhHS5Ea4j6NPzZ
byWUqd3Av7UMOIQUzp6M9hXmmrxK6GGDlVmnqUnegfytroW6uwi6Z766MzxxQT13
STPPkJuLAWcCllHHP7Hhy1EaG2rRSlUbsvgFRTKJFA+w4PcyyDr8DASFYGKjnQID
AQABo4GUMIGRMAkGA1UdEwQCMAAwHQYDVR0OBBYEFO8B27S5G+B9wy3e/ygZ+uhC
X8dKMEMGA1UdIwQ8MDqAFK2fLhjCjhUARwfauUV3/ECGA0nfoRekFTATMREwDwYD
VQQDDAhDaGFuZ2VNZYIJAM97m0JfWaobMBMGA1UdJQQMMAoGCCsGAQUFBwMCMAsG
A1UdDwQEAwIHgDANBgkqhkiG9w0BAQsFAAOCAQEAzOKtsDhTOdUQOp7bZCkM7w6o
QCe16TaSg2u7J/JhuWcvqBc9JZxH+e48yGpoINzjYsZtAPeFlvMWiltnzcMi4y56
zJUPGi3uqPekwk0XroTw0rgHWFmIQg1C/Zhi63cJmNfgpHxET/09U6ODhfdTVUC0
Q2wkxxbvvLNrG+HprcBnAZX8qYx1xslAp3v9k1PguY2k91ePh2N5SVWH7ntV/pMQ
4sZIZsksDV1PlIKKfY0+VBYGT9YvuI6IIiZsK6dOmqDaT1OhAttb3raDdj3lEhzQ
0nWj2nrawE3gBH8joXPGqmhKQliUMzeEqQgM6Q7tudxG7XCxQ3VPCA5EZBWLMg==
-----END CERTIFICATE-----
