Certificate:
    Data:
        Version: 3 (0x2)
        Serial Number:
            62:23:2c:3f:ee:54:81:4a:74:56:9a:9d:d0:bb:03:93
    Signature Algorithm: sha256WithRSAEncryption
        Issuer: CN=ChangeMe
        Validity
            Not Before: Apr 27 19:33:03 2018 GMT
            Not After : Apr 24 19:33:03 2028 GMT
        Subject: CN=myvpn-200.1.1.81-iPhone
        Subject Public Key Info:
            Public Key Algorithm: rsaEncryption
                Public-Key: (2048 bit)
                Modulus:
                    00:be:34:bf:1d:2f:2e:19:ee:55:6c:b9:14:47:49:
                    52:4e:91:83:8f:c0:f2:24:1f:35:f8:2f:f3:fd:b0:
                    e1:e5:ce:00:f3:51:7e:3b:66:c8:e7:44:5f:58:e8:
                    c8:65:6a:95:39:30:e3:fb:a1:7d:3f:64:23:dc:92:
                    37:d2:13:c8:4a:5e:4f:66:fc:17:bc:a9:49:bd:08:
                    2e:c3:9c:89:e9:80:70:ca:5f:44:88:83:20:8b:1d:
                    e8:2f:c0:1f:a8:14:15:47:d0:62:84:45:3a:3c:ad:
                    de:ee:af:65:7a:b2:12:e5:61:61:f7:2e:93:ba:e7:
                    f5:79:5d:15:84:6c:3d:f4:a0:b8:cf:17:e0:b2:6d:
                    13:9d:c5:4f:10:8a:3d:8c:d4:0d:6b:eb:7d:c4:47:
                    26:01:85:45:08:97:ba:e5:df:ba:43:7f:f8:85:b6:
                    b2:07:db:a5:96:28:80:70:79:7b:82:70:50:87:4a:
                    96:a2:6f:5b:e5:3a:30:ca:c0:19:f3:47:c6:81:b6:
                    b3:82:91:4b:94:2e:e4:48:68:0a:cb:bd:cb:65:2e:
                    b2:bc:88:dd:e7:4a:6c:5f:59:81:1d:38:8a:24:cb:
                    0b:a8:06:a4:58:35:7c:8e:18:7f:a5:6b:11:8a:18:
                    aa:d3:d9:0e:4b:b0:28:b0:8a:7c:95:b9:fe:20:b5:
                    3b:1f
                Exponent: 65537 (0x10001)
        X509v3 extensions:
            X509v3 Basic Constraints: 
                CA:FALSE
            X509v3 Subject Key Identifier: 
                96:A2:50:B6:84:D7:54:4B:11:F2:73:70:B7:3C:A1:4D:C1:46:BA:7F
            X509v3 Authority Key Identifier: 
                keyid:AD:9F:2E:18:C2:8E:15:00:47:07:DA:B9:45:77:FC:40:86:03:49:DF
                DirName:/CN=ChangeMe
                serial:CF:7B:9B:42:5F:59:AA:1B

            X509v3 Extended Key Usage: 
                TLS Web Client Authentication
            X509v3 Key Usage: 
                Digital Signature
    Signature Algorithm: sha256WithRSAEncryption
         a7:de:24:e3:1a:72:04:43:25:25:8a:15:50:4e:f7:4e:a6:92:
         2f:e4:a3:3c:5a:c5:18:b5:a5:36:07:f1:01:84:56:df:5d:48:
         39:58:b3:3d:f1:6f:c9:37:45:aa:b4:d7:06:2e:3d:55:33:fe:
         3b:ba:80:f6:46:4b:51:39:bf:5b:5e:90:24:b9:cd:ef:7a:5f:
         93:ed:30:e2:f2:5a:02:db:14:c7:96:ec:c2:c8:16:74:b1:4b:
         35:20:e0:42:df:0e:30:08:7a:61:8f:d5:35:70:9f:55:7a:9b:
         5f:6b:a6:84:44:fd:06:c3:9b:12:87:03:80:2b:ce:ed:22:ff:
         eb:ce:76:e9:49:3f:0e:14:14:cc:5c:f2:25:4d:53:2f:40:6f:
         77:7d:99:52:3b:9c:e6:76:63:c2:64:0d:4a:e9:e3:d8:48:80:
         07:0e:7c:98:3d:70:4c:86:5b:ff:f7:ba:d7:71:78:0b:55:b3:
         8d:29:dd:90:a4:af:56:d8:ef:38:eb:33:6c:78:0b:eb:8f:ea:
         bb:d0:da:b9:62:53:17:ed:b9:3c:3c:5e:87:b8:16:92:76:86:
         d7:ce:b6:06:cc:30:a9:c7:41:37:4a:76:1e:f8:5b:e1:76:82:
         e0:a3:dd:f8:b5:3e:21:58:41:1c:6b:3d:61:e2:47:da:80:b1:
         c8:8d:7e:0b
-----BEGIN CERTIFICATE-----
MIIDVDCCAjygAwIBAgIQYiMsP+5UgUp0Vpqd0LsDkzANBgkqhkiG9w0BAQsFADAT
MREwDwYDVQQDDAhDaGFuZ2VNZTAeFw0xODA0MjcxOTMzMDNaFw0yODA0MjQxOTMz
MDNaMCIxIDAeBgNVBAMMF215dnBuLTIwMC4xLjEuODEtaVBob25lMIIBIjANBgkq
hkiG9w0BAQEFAAOCAQ8AMIIBCgKCAQEAvjS/HS8uGe5VbLkUR0lSTpGDj8DyJB81
+C/z/bDh5c4A81F+O2bI50RfWOjIZWqVOTDj+6F9P2Qj3JI30hPISl5PZvwXvKlJ
vQguw5yJ6YBwyl9EiIMgix3oL8AfqBQVR9BihEU6PK3e7q9lerIS5WFh9y6Tuuf1
eV0VhGw99KC4zxfgsm0TncVPEIo9jNQNa+t9xEcmAYVFCJe65d+6Q3/4hbayB9ul
liiAcHl7gnBQh0qWom9b5TowysAZ80fGgbazgpFLlC7kSGgKy73LZS6yvIjd50ps
X1mBHTiKJMsLqAakWDV8jhh/pWsRihiq09kOS7AosIp8lbn+ILU7HwIDAQABo4GU
MIGRMAkGA1UdEwQCMAAwHQYDVR0OBBYEFJaiULaE11RLEfJzcLc8oU3BRrp/MEMG
A1UdIwQ8MDqAFK2fLhjCjhUARwfauUV3/ECGA0nfoRekFTATMREwDwYDVQQDDAhD
aGFuZ2VNZYIJAM97m0JfWaobMBMGA1UdJQQMMAoGCCsGAQUFBwMCMAsGA1UdDwQE
AwIHgDANBgkqhkiG9w0BAQsFAAOCAQEAp94k4xpyBEMlJYoVUE73TqaSL+SjPFrF
GLWlNgfxAYRW311IOVizPfFvyTdFqrTXBi49VTP+O7qA9kZLUTm/W16QJLnN73pf
k+0w4vJaAtsUx5bswsgWdLFLNSDgQt8OMAh6YY/VNXCfVXqbX2umhET9BsObEocD
gCvO7SL/68526Uk/DhQUzFzyJU1TL0Bvd32ZUjuc5nZjwmQNSunj2EiABw58mD1w
TIZb//e613F4C1WzjSndkKSvVtjvOOszbHgL64/qu9DauWJTF+25PDxeh7gWknaG
1862BswwqcdBN0p2Hvhb4XaC4KPd+LU+IVhBHGs9YeJH2oCxyI1+Cw==
-----END CERTIFICATE-----
