Certificate:
    Data:
        Version: 3 (0x2)
        Serial Number:
            8e:61:18:c6:f7:76:55:2d:09:51:b3:54:5d:e8:dd:01
    Signature Algorithm: sha256WithRSAEncryption
        Issuer: CN=ChangeMe
        Validity
            Not Before: Apr 23 21:04:40 2018 GMT
            Not After : Apr 20 21:04:40 2028 GMT
        Subject: CN=myvpn-200.1.1.124-ESP_8150CA
        Subject Public Key Info:
            Public Key Algorithm: rsaEncryption
                Public-Key: (2048 bit)
                Modulus:
                    00:c8:21:b9:ad:33:21:44:db:25:35:b4:6f:4e:ed:
                    6f:71:cc:53:1f:f7:39:7e:48:ef:dc:50:57:40:c9:
                    38:47:71:94:b2:03:6e:23:05:ad:00:c1:dc:5b:20:
                    6b:dd:2f:c9:04:dd:0c:f6:3e:36:d7:85:36:66:81:
                    c9:fd:17:f6:63:a7:34:51:c9:06:19:aa:e5:d8:08:
                    20:87:23:0d:37:b4:eb:9d:fe:e1:83:cd:8b:fc:37:
                    eb:65:8e:8a:e6:8e:e4:6d:bf:5e:66:b0:ec:4f:6e:
                    13:37:db:c2:8e:be:8b:dd:fb:fb:2d:60:c2:ed:69:
                    5c:8e:83:2e:5b:47:d6:46:7e:b0:b9:5a:a0:f9:50:
                    e4:3e:e9:8c:6b:8a:a0:1c:d1:59:5e:23:71:04:05:
                    a5:e0:0d:fa:b1:e9:66:9e:b7:92:eb:70:80:6a:2c:
                    91:c9:1f:aa:b9:5d:99:21:eb:2b:35:1e:87:79:a1:
                    d2:d9:d4:d8:8d:7f:74:80:ba:cc:46:a1:76:cf:1a:
                    a0:8a:2d:6a:09:b2:11:9d:b0:98:a7:95:3a:6c:3a:
                    a9:e3:f1:9a:07:a3:fb:be:16:15:78:d4:5b:c0:cb:
                    9a:44:d8:7b:9d:7b:2c:58:b7:1a:50:e7:e9:07:b6:
                    ea:36:76:15:f9:06:a2:80:8d:be:8e:d2:04:96:12:
                    c2:bb
                Exponent: 65537 (0x10001)
        X509v3 extensions:
            X509v3 Basic Constraints: 
                CA:FALSE
            X509v3 Subject Key Identifier: 
                59:C4:CF:92:57:F8:6C:46:2C:E7:2C:15:2F:E4:6B:FB:F1:AF:EF:70
            X509v3 Authority Key Identifier: 
                keyid:AD:9F:2E:18:C2:8E:15:00:47:07:DA:B9:45:77:FC:40:86:03:49:DF
                DirName:/CN=ChangeMe
                serial:CF:7B:9B:42:5F:59:AA:1B

            X509v3 Extended Key Usage: 
                TLS Web Client Authentication
            X509v3 Key Usage: 
                Digital Signature
    Signature Algorithm: sha256WithRSAEncryption
         70:54:5e:0f:51:44:31:14:8c:83:40:7b:1e:1f:49:51:69:df:
         a1:e3:a8:01:d5:aa:a0:6a:b5:6f:41:fa:1b:85:71:14:b0:c7:
         e1:85:fe:3d:0d:74:57:4c:ec:5f:1f:27:0e:1d:72:e5:b9:d5:
         52:d3:10:44:3c:6b:98:42:ea:49:27:2e:54:c1:36:75:61:3c:
         71:ab:1a:cf:df:27:cb:eb:52:65:15:c2:fe:32:b9:8b:82:9c:
         1b:f7:f5:31:e2:fe:ec:29:7e:2c:f0:1e:e4:b6:dc:85:77:4a:
         a5:9a:f1:f2:9e:32:e5:92:ce:1d:a2:d5:b2:b7:58:67:e3:0e:
         f1:be:bf:fc:d9:74:2e:b3:32:53:46:3f:a0:94:66:4e:31:9c:
         44:f5:63:bc:5a:f4:fe:02:30:6a:a4:30:eb:8f:b0:bb:d1:e5:
         37:4a:bd:e5:f9:6a:56:fd:57:77:01:07:10:e5:fa:5d:be:f2:
         f2:0f:0e:7d:29:e9:b6:14:0b:e6:10:9c:e5:47:87:b9:18:0e:
         1a:0b:ed:74:c6:94:85:a7:e9:b0:b0:83:68:15:d4:1a:f5:13:
         77:b3:e4:91:fb:50:58:1d:9e:d8:27:51:f0:c0:59:fd:8e:f6:
         22:69:6a:97:9b:f8:f0:0b:d7:71:3c:e6:81:da:db:16:82:15:
         d7:92:34:3c
-----BEGIN CERTIFICATE-----
MIIDWjCCAkKgAwIBAgIRAI5hGMb3dlUtCVGzVF3o3QEwDQYJKoZIhvcNAQELBQAw
EzERMA8GA1UEAwwIQ2hhbmdlTWUwHhcNMTgwNDIzMjEwNDQwWhcNMjgwNDIwMjEw
NDQwWjAnMSUwIwYDVQQDDBxteXZwbi0yMDAuMS4xLjEyNC1FU1BfODE1MENBMIIB
IjANBgkqhkiG9w0BAQEFAAOCAQ8AMIIBCgKCAQEAyCG5rTMhRNslNbRvTu1vccxT
H/c5fkjv3FBXQMk4R3GUsgNuIwWtAMHcWyBr3S/JBN0M9j4214U2ZoHJ/Rf2Y6c0
UckGGarl2AgghyMNN7Trnf7hg82L/DfrZY6K5o7kbb9eZrDsT24TN9vCjr6L3fv7
LWDC7WlcjoMuW0fWRn6wuVqg+VDkPumMa4qgHNFZXiNxBAWl4A36selmnreS63CA
aiyRyR+quV2ZIesrNR6HeaHS2dTYjX90gLrMRqF2zxqgii1qCbIRnbCYp5U6bDqp
4/GaB6P7vhYVeNRbwMuaRNh7nXssWLcaUOfpB7bqNnYV+QaigI2+jtIElhLCuwID
AQABo4GUMIGRMAkGA1UdEwQCMAAwHQYDVR0OBBYEFFnEz5JX+GxGLOcsFS/ka/vx
r+9wMEMGA1UdIwQ8MDqAFK2fLhjCjhUARwfauUV3/ECGA0nfoRekFTATMREwDwYD
VQQDDAhDaGFuZ2VNZYIJAM97m0JfWaobMBMGA1UdJQQMMAoGCCsGAQUFBwMCMAsG
A1UdDwQEAwIHgDANBgkqhkiG9w0BAQsFAAOCAQEAcFReD1FEMRSMg0B7Hh9JUWnf
oeOoAdWqoGq1b0H6G4VxFLDH4YX+PQ10V0zsXx8nDh1y5bnVUtMQRDxrmELqSScu
VME2dWE8casaz98ny+tSZRXC/jK5i4KcG/f1MeL+7Cl+LPAe5LbchXdKpZrx8p4y
5ZLOHaLVsrdYZ+MO8b6//Nl0LrMyU0Y/oJRmTjGcRPVjvFr0/gIwaqQw64+wu9Hl
N0q95flqVv1XdwEHEOX6Xb7y8g8OfSnpthQL5hCc5UeHuRgOGgvtdMaUhafpsLCD
aBXUGvUTd7PkkftQWB2e2CdR8MBZ/Y72Imlql5v48AvXcTzmgdrbFoIV15I0PA==
-----END CERTIFICATE-----
