Certificate:
    Data:
        Version: 3 (0x2)
        Serial Number:
            ce:e4:12:e6:24:2f:04:9b:b6:05:97:10:28:29:88:89
    Signature Algorithm: sha256WithRSAEncryption
        Issuer: CN=ChangeMe
        Validity
            Not Before: Apr 23 16:17:45 2018 GMT
            Not After : Apr 20 16:17:45 2028 GMT
        Subject: CN=myvpn-200.1.1.42
        Subject Public Key Info:
            Public Key Algorithm: rsaEncryption
                Public-Key: (2048 bit)
                Modulus:
                    00:cb:60:d4:1f:4f:f8:28:54:75:5b:1c:9d:0a:77:
                    19:a1:e2:5c:19:3d:e9:ea:86:e3:c2:42:e1:c6:f5:
                    16:c3:a6:05:34:22:55:47:a3:51:09:5c:7e:25:22:
                    d0:24:c7:e5:95:fd:4a:f5:46:c5:31:80:da:0d:f9:
                    b3:a7:88:25:2d:84:0d:e9:a1:2a:b4:fb:2a:53:dd:
                    14:24:d4:6e:9e:67:4a:ef:3d:8d:62:3e:ca:01:44:
                    52:1d:ed:b9:62:e3:17:b0:a7:6e:14:a5:6a:d3:77:
                    2f:a3:ec:24:b3:d1:66:5a:97:0f:82:e3:b7:60:81:
                    56:4e:ed:72:6d:bf:2c:9d:69:61:f9:92:94:8d:07:
                    18:ba:1e:8a:90:81:4d:e1:da:33:af:03:ef:6a:4a:
                    6a:d4:69:e0:bd:6b:fb:aa:5b:90:e5:fb:60:25:c5:
                    3d:61:ee:53:89:e6:0a:c1:d0:80:bd:42:bd:ac:b6:
                    ff:bb:5b:ba:6f:e8:19:b7:14:80:03:86:af:73:ce:
                    f4:49:4c:86:1e:a8:bf:16:66:59:e8:2d:4b:6b:62:
                    cb:69:b1:e1:2e:89:1c:e6:86:22:c9:2b:75:da:c3:
                    af:79:c9:fe:de:2c:44:4f:73:33:21:4d:7d:f6:e4:
                    a3:52:46:7f:8f:71:22:65:95:3f:af:07:b8:d7:d3:
                    b7:4d
                Exponent: 65537 (0x10001)
        X509v3 extensions:
            X509v3 Basic Constraints: 
                CA:FALSE
            X509v3 Subject Key Identifier: 
                02:8C:F2:7D:BE:86:5D:5F:C0:09:C7:B7:59:BD:BB:65:88:05:74:B5
            X509v3 Authority Key Identifier: 
                keyid:AD:9F:2E:18:C2:8E:15:00:47:07:DA:B9:45:77:FC:40:86:03:49:DF
                DirName:/CN=ChangeMe
                serial:CF:7B:9B:42:5F:59:AA:1B

            X509v3 Extended Key Usage: 
                TLS Web Client Authentication
            X509v3 Key Usage: 
                Digital Signature
    Signature Algorithm: sha256WithRSAEncryption
         3e:f6:bd:0c:af:f0:16:af:92:34:7b:90:c9:0d:30:c0:22:47:
         14:4a:00:fc:84:f6:9b:61:a9:49:e4:00:ee:b0:41:2d:c0:aa:
         60:a8:1c:ff:91:29:4e:6a:8c:1a:8e:f2:c7:25:c8:2b:e6:67:
         95:1e:e6:82:4c:47:da:ef:0f:b6:24:7d:0e:24:3e:1f:72:6a:
         47:47:bf:fd:67:01:b0:ea:9a:64:2c:7a:5d:a2:55:4b:b7:e5:
         51:4e:9b:3f:42:8d:4f:7c:da:cb:83:f3:54:e4:d9:31:f0:72:
         33:24:a6:65:a6:93:74:a8:c8:82:b7:b4:15:c5:03:99:52:25:
         33:f9:df:1a:78:41:ab:54:e3:94:8f:d2:9e:f4:fa:41:f5:73:
         a3:3e:78:d9:f7:50:ca:05:e3:c9:a6:7f:0c:53:15:39:f5:e5:
         80:09:80:ad:70:0e:65:84:23:c2:ae:ec:b2:02:e9:94:ce:e0:
         04:b2:18:5d:a3:9b:9f:9c:20:1d:87:fa:a9:70:1c:a4:13:83:
         f3:37:b4:a9:de:0b:5f:b2:d2:af:5b:28:7f:a4:e2:6b:db:14:
         a7:3e:59:a6:9f:46:a2:20:9b:6b:0d:b0:f1:63:64:f0:9b:d2:
         d3:0c:c3:4a:4e:6d:56:1e:64:6c:fa:6c:d4:bc:c4:5f:12:83:
         84:ca:f2:6c
-----BEGIN CERTIFICATE-----
MIIDTjCCAjagAwIBAgIRAM7kEuYkLwSbtgWXECgpiIkwDQYJKoZIhvcNAQELBQAw
EzERMA8GA1UEAwwIQ2hhbmdlTWUwHhcNMTgwNDIzMTYxNzQ1WhcNMjgwNDIwMTYx
NzQ1WjAbMRkwFwYDVQQDDBBteXZwbi0yMDAuMS4xLjQyMIIBIjANBgkqhkiG9w0B
AQEFAAOCAQ8AMIIBCgKCAQEAy2DUH0/4KFR1WxydCncZoeJcGT3p6objwkLhxvUW
w6YFNCJVR6NRCVx+JSLQJMfllf1K9UbFMYDaDfmzp4glLYQN6aEqtPsqU90UJNRu
nmdK7z2NYj7KAURSHe25YuMXsKduFKVq03cvo+wks9FmWpcPguO3YIFWTu1ybb8s
nWlh+ZKUjQcYuh6KkIFN4dozrwPvakpq1GngvWv7qluQ5ftgJcU9Ye5TieYKwdCA
vUK9rLb/u1u6b+gZtxSAA4avc870SUyGHqi/FmZZ6C1La2LLabHhLokc5oYiySt1
2sOvecn+3ixET3MzIU199uSjUkZ/j3EiZZU/rwe419O3TQIDAQABo4GUMIGRMAkG
A1UdEwQCMAAwHQYDVR0OBBYEFAKM8n2+hl1fwAnHt1m9u2WIBXS1MEMGA1UdIwQ8
MDqAFK2fLhjCjhUARwfauUV3/ECGA0nfoRekFTATMREwDwYDVQQDDAhDaGFuZ2VN
ZYIJAM97m0JfWaobMBMGA1UdJQQMMAoGCCsGAQUFBwMCMAsGA1UdDwQEAwIHgDAN
BgkqhkiG9w0BAQsFAAOCAQEAPva9DK/wFq+SNHuQyQ0wwCJHFEoA/IT2m2GpSeQA
7rBBLcCqYKgc/5EpTmqMGo7yxyXIK+ZnlR7mgkxH2u8PtiR9DiQ+H3JqR0e//WcB
sOqaZCx6XaJVS7flUU6bP0KNT3zay4PzVOTZMfByMySmZaaTdKjIgre0FcUDmVIl
M/nfGnhBq1TjlI/SnvT6QfVzoz542fdQygXjyaZ/DFMVOfXlgAmArXAOZYQjwq7s
sgLplM7gBLIYXaObn5wgHYf6qXAcpBOD8ze0qd4LX7LSr1sof6Tia9sUpz5Zpp9G
oiCbaw2w8WNk8JvS0wzDSk5tVh5kbPps1LzEXxKDhMrybA==
-----END CERTIFICATE-----
