Certificate:
    Data:
        Version: 3 (0x2)
        Serial Number:
            67:68:7d:40:2f:60:f3:af:04:95:a8:8c:6c:46:42:1d
    Signature Algorithm: sha256WithRSAEncryption
        Issuer: CN=ChangeMe
        Validity
            Not Before: Apr 23 20:08:09 2018 GMT
            Not After : Apr 20 20:08:09 2028 GMT
        Subject: CN=myvpn-200.1.1.14-jeanmichelcrapaud
        Subject Public Key Info:
            Public Key Algorithm: rsaEncryption
                Public-Key: (2048 bit)
                Modulus:
                    00:95:81:7b:ef:59:0e:51:3d:b6:dc:56:48:65:52:
                    a6:e8:b6:09:1b:c0:cd:cb:e5:f9:97:17:7f:e5:6e:
                    c3:35:79:e4:38:3b:21:8d:39:b6:13:8a:19:51:f0:
                    96:32:b8:ab:80:fd:70:f6:b6:34:ef:87:b7:8e:f4:
                    b3:8e:d5:83:62:80:7c:d6:4b:28:65:0f:93:6e:96:
                    84:ac:74:88:0b:6d:a9:de:6d:0d:4b:ea:3c:a9:c3:
                    4f:cb:ea:2c:a7:9a:80:77:1e:d3:ce:55:fd:e7:ee:
                    dd:b9:7a:ab:f5:23:9c:79:5e:4f:e9:1e:97:55:13:
                    59:f0:98:40:14:af:dd:11:90:4d:77:bb:28:02:eb:
                    0f:59:14:69:97:1c:f8:51:cd:02:5e:b5:36:b9:28:
                    f3:33:d3:a7:94:2f:fb:f2:64:05:e3:79:dd:df:d4:
                    f3:fc:1a:b2:6c:a4:97:88:ae:80:7f:d8:b0:28:04:
                    4f:86:fa:a5:7b:1b:0e:3d:12:97:b6:a9:9c:66:ca:
                    f2:54:09:ea:1e:c2:bf:53:3e:5a:7a:27:98:ad:9a:
                    67:ee:87:cd:e2:90:e2:b3:d1:60:6b:7b:dc:23:cb:
                    f3:5a:74:3e:7f:c7:2a:f4:88:c3:cb:cd:61:7a:77:
                    2f:6c:b8:fb:0f:67:50:e3:0a:4b:8f:22:f5:59:24:
                    71:43
                Exponent: 65537 (0x10001)
        X509v3 extensions:
            X509v3 Basic Constraints: 
                CA:FALSE
            X509v3 Subject Key Identifier: 
                87:05:0B:CF:0A:BA:23:72:12:9B:43:9E:E9:B4:69:1C:D7:24:3E:EE
            X509v3 Authority Key Identifier: 
                keyid:AD:9F:2E:18:C2:8E:15:00:47:07:DA:B9:45:77:FC:40:86:03:49:DF
                DirName:/CN=ChangeMe
                serial:CF:7B:9B:42:5F:59:AA:1B

            X509v3 Extended Key Usage: 
                TLS Web Client Authentication
            X509v3 Key Usage: 
                Digital Signature
    Signature Algorithm: sha256WithRSAEncryption
         41:3f:df:91:c1:bd:ff:41:98:0e:d5:1b:bd:05:56:50:1c:98:
         eb:c9:47:c8:32:ff:2f:59:2a:0a:69:8d:9b:c6:02:85:f4:03:
         61:70:7c:73:69:c6:cb:98:17:a2:73:70:d6:3b:91:38:c6:6c:
         1d:cd:8b:7c:ed:ef:10:50:19:95:bb:ed:09:ad:90:f4:69:63:
         a5:62:fa:b4:08:93:d3:b1:fa:ae:27:fa:c3:6f:df:3a:11:13:
         ac:56:14:bc:00:b1:89:b8:5e:17:86:82:b9:61:d0:9b:d2:73:
         a1:a7:55:0a:ee:cf:98:ae:67:fe:ef:e8:54:a8:cd:10:76:0d:
         95:88:bd:50:13:c6:33:a2:d9:12:e3:ef:d5:fb:cb:ba:64:6f:
         61:91:28:23:34:32:6c:74:f1:03:f5:5f:c0:97:69:72:58:10:
         1e:11:71:52:fa:90:33:04:8c:51:2c:ff:98:a1:1f:ec:7f:d5:
         de:26:78:e2:b1:33:de:1f:2d:5b:91:6f:81:87:81:57:4a:23:
         c0:a8:de:6b:f4:54:41:41:fd:99:f7:9c:8e:9b:03:cb:60:b0:
         a3:77:ef:cb:ea:df:58:2d:b5:41:bf:7a:11:fa:ef:36:c6:0c:
         65:36:12:43:14:c7:23:1d:03:f5:f4:dd:44:4a:6f:28:a8:8a:
         e4:c1:45:58
-----BEGIN CERTIFICATE-----
MIIDXzCCAkegAwIBAgIQZ2h9QC9g868ElaiMbEZCHTANBgkqhkiG9w0BAQsFADAT
MREwDwYDVQQDDAhDaGFuZ2VNZTAeFw0xODA0MjMyMDA4MDlaFw0yODA0MjAyMDA4
MDlaMC0xKzApBgNVBAMMIm15dnBuLTIwMC4xLjEuMTQtamVhbm1pY2hlbGNyYXBh
dWQwggEiMA0GCSqGSIb3DQEBAQUAA4IBDwAwggEKAoIBAQCVgXvvWQ5RPbbcVkhl
UqbotgkbwM3L5fmXF3/lbsM1eeQ4OyGNObYTihlR8JYyuKuA/XD2tjTvh7eO9LOO
1YNigHzWSyhlD5NuloSsdIgLbanebQ1L6jypw0/L6iynmoB3HtPOVf3n7t25eqv1
I5x5Xk/pHpdVE1nwmEAUr90RkE13uygC6w9ZFGmXHPhRzQJetTa5KPMz06eUL/vy
ZAXjed3f1PP8GrJspJeIroB/2LAoBE+G+qV7Gw49Epe2qZxmyvJUCeoewr9TPlp6
J5itmmfuh83ikOKz0WBre9wjy/NadD5/xyr0iMPLzWF6dy9suPsPZ1DjCkuPIvVZ
JHFDAgMBAAGjgZQwgZEwCQYDVR0TBAIwADAdBgNVHQ4EFgQUhwULzwq6I3ISm0Oe
6bRpHNckPu4wQwYDVR0jBDwwOoAUrZ8uGMKOFQBHB9q5RXf8QIYDSd+hF6QVMBMx
ETAPBgNVBAMMCENoYW5nZU1lggkAz3ubQl9ZqhswEwYDVR0lBAwwCgYIKwYBBQUH
AwIwCwYDVR0PBAQDAgeAMA0GCSqGSIb3DQEBCwUAA4IBAQBBP9+Rwb3/QZgO1Ru9
BVZQHJjryUfIMv8vWSoKaY2bxgKF9ANhcHxzacbLmBeic3DWO5E4xmwdzYt87e8Q
UBmVu+0JrZD0aWOlYvq0CJPTsfquJ/rDb986EROsVhS8ALGJuF4XhoK5YdCb0nOh
p1UK7s+Yrmf+7+hUqM0Qdg2ViL1QE8YzotkS4+/V+8u6ZG9hkSgjNDJsdPED9V/A
l2lyWBAeEXFS+pAzBIxRLP+YoR/sf9XeJnjisTPeHy1bkW+Bh4FXSiPAqN5r9FRB
Qf2Z95yOmwPLYLCjd+/L6t9YLbVBv3oR+u82xgxlNhJDFMcjHQP19N1ESm8oqIrk
wUVY
-----END CERTIFICATE-----
