Certificate:
    Data:
        Version: 3 (0x2)
        Serial Number:
            98:36:b7:67:c3:f8:d2:e5:70:ff:0e:5f:b7:bf:84:9e
    Signature Algorithm: sha256WithRSAEncryption
        Issuer: CN=ChangeMe
        Validity
            Not Before: Apr 23 20:26:09 2018 GMT
            Not After : Apr 20 20:26:09 2028 GMT
        Subject: CN=myvpn-200.1.1.149-jeanmichelcrapaud
        Subject Public Key Info:
            Public Key Algorithm: rsaEncryption
                Public-Key: (2048 bit)
                Modulus:
                    00:b9:cb:a6:6f:af:57:e8:8d:0e:a2:d7:6b:3f:d7:
                    92:fa:5a:ed:50:21:93:08:7b:ff:66:6d:45:b9:c1:
                    12:27:3d:ed:b7:8c:11:39:0b:3c:05:9e:a9:94:df:
                    87:e6:31:79:d3:ad:e3:10:54:3f:90:7e:7b:9b:a6:
                    10:33:ef:a2:e5:3c:82:37:64:f3:36:d9:e3:d3:d6:
                    4a:eb:28:03:03:ff:63:9f:a8:d3:a1:68:15:3a:52:
                    37:e4:ad:d7:34:b4:cb:5f:22:93:8e:aa:f9:81:90:
                    1b:48:5a:57:b0:63:15:36:3a:f4:5e:a6:e0:66:45:
                    37:d8:c8:be:2c:8d:00:d8:50:fa:d0:50:38:37:fe:
                    d8:9a:df:65:d6:ac:12:16:38:c4:35:09:54:9b:4f:
                    54:ba:33:56:67:b8:09:4b:63:57:cb:ed:42:89:7f:
                    9d:28:db:c6:d8:3d:1d:74:45:d6:fd:5f:0f:14:4b:
                    18:3e:9f:2a:85:3b:eb:68:88:93:72:c2:0e:8b:80:
                    56:a4:c3:10:e2:8f:4a:0a:bf:28:e3:7e:74:8e:14:
                    dc:3d:1a:30:38:97:fc:b7:e7:22:39:89:32:b0:2d:
                    aa:83:92:0a:3a:dd:e1:ba:14:bf:1f:c3:e1:4a:17:
                    ab:72:78:55:a7:93:47:e2:2c:75:2d:63:ac:ab:9d:
                    00:33
                Exponent: 65537 (0x10001)
        X509v3 extensions:
            X509v3 Basic Constraints: 
                CA:FALSE
            X509v3 Subject Key Identifier: 
                51:3C:46:0C:8E:61:76:91:C8:4B:6D:5E:04:AA:FC:0D:23:1D:12:5F
            X509v3 Authority Key Identifier: 
                keyid:AD:9F:2E:18:C2:8E:15:00:47:07:DA:B9:45:77:FC:40:86:03:49:DF
                DirName:/CN=ChangeMe
                serial:CF:7B:9B:42:5F:59:AA:1B

            X509v3 Extended Key Usage: 
                TLS Web Client Authentication
            X509v3 Key Usage: 
                Digital Signature
    Signature Algorithm: sha256WithRSAEncryption
         73:ac:27:65:2b:5b:03:d5:f3:7e:3c:1e:10:d8:78:05:30:79:
         d9:d7:28:92:fd:cd:9a:37:ee:f8:84:9a:8f:68:3a:ac:71:34:
         f4:89:5f:98:28:f0:0f:c1:e1:03:a9:a6:d4:86:c4:83:dc:5a:
         e7:af:4e:00:25:e4:38:be:66:d4:3a:38:f2:e9:1f:b6:d7:91:
         ff:b7:f6:25:88:72:4d:57:7b:47:af:b7:5c:96:94:3c:8c:7b:
         50:2f:08:5e:77:17:7c:87:76:71:e9:03:25:43:0a:c5:72:c8:
         1b:16:cd:23:e5:ab:f6:1b:e1:2c:19:54:b3:a3:a2:1d:cb:aa:
         03:b5:43:7d:02:28:a1:c5:b6:1f:30:a0:e4:9c:a6:d1:58:11:
         9c:37:a1:b5:06:8d:e2:69:31:86:4b:4e:90:69:e5:85:69:d5:
         ef:d4:56:27:04:15:ba:25:d2:ba:3d:86:d2:37:c8:07:09:ac:
         38:94:49:19:ab:1b:3a:96:2e:b1:18:18:e6:79:dd:26:bd:eb:
         66:e0:3e:8e:50:48:1c:5f:f7:ce:66:66:5b:cc:57:1b:43:6e:
         27:23:22:4d:14:b4:d8:7e:dc:82:c2:22:fc:84:4a:00:07:9f:
         38:83:21:34:f1:27:0c:50:8e:f3:33:a9:66:61:28:7a:0c:57:
         cd:0c:06:bf
-----BEGIN CERTIFICATE-----
MIIDYTCCAkmgAwIBAgIRAJg2t2fD+NLlcP8OX7e/hJ4wDQYJKoZIhvcNAQELBQAw
EzERMA8GA1UEAwwIQ2hhbmdlTWUwHhcNMTgwNDIzMjAyNjA5WhcNMjgwNDIwMjAy
NjA5WjAuMSwwKgYDVQQDDCNteXZwbi0yMDAuMS4xLjE0OS1qZWFubWljaGVsY3Jh
cGF1ZDCCASIwDQYJKoZIhvcNAQEBBQADggEPADCCAQoCggEBALnLpm+vV+iNDqLX
az/Xkvpa7VAhkwh7/2ZtRbnBEic97beMETkLPAWeqZTfh+YxedOt4xBUP5B+e5um
EDPvouU8gjdk8zbZ49PWSusoAwP/Y5+o06FoFTpSN+St1zS0y18ik46q+YGQG0ha
V7BjFTY69F6m4GZFN9jIviyNANhQ+tBQODf+2JrfZdasEhY4xDUJVJtPVLozVme4
CUtjV8vtQol/nSjbxtg9HXRF1v1fDxRLGD6fKoU762iIk3LCDouAVqTDEOKPSgq/
KON+dI4U3D0aMDiX/LfnIjmJMrAtqoOSCjrd4boUvx/D4UoXq3J4VaeTR+IsdS1j
rKudADMCAwEAAaOBlDCBkTAJBgNVHRMEAjAAMB0GA1UdDgQWBBRRPEYMjmF2kchL
bV4EqvwNIx0SXzBDBgNVHSMEPDA6gBStny4Ywo4VAEcH2rlFd/xAhgNJ36EXpBUw
EzERMA8GA1UEAwwIQ2hhbmdlTWWCCQDPe5tCX1mqGzATBgNVHSUEDDAKBggrBgEF
BQcDAjALBgNVHQ8EBAMCB4AwDQYJKoZIhvcNAQELBQADggEBAHOsJ2UrWwPV8348
HhDYeAUwednXKJL9zZo37viEmo9oOqxxNPSJX5go8A/B4QOpptSGxIPcWuevTgAl
5Di+ZtQ6OPLpH7bXkf+39iWIck1Xe0evt1yWlDyMe1AvCF53F3yHdnHpAyVDCsVy
yBsWzSPlq/Yb4SwZVLOjoh3LqgO1Q30CKKHFth8woOScptFYEZw3obUGjeJpMYZL
TpBp5YVp1e/UVicEFbol0ro9htI3yAcJrDiUSRmrGzqWLrEYGOZ53Sa962bgPo5Q
SBxf985mZlvMVxtDbicjIk0UtNh+3ILCIvyESgAHnziDITTxJwxQjvMzqWZhKHoM
V80MBr8=
-----END CERTIFICATE-----
