Certificate:
    Data:
        Version: 3 (0x2)
        Serial Number:
            09:bb:0d:b7:5e:ef:b2:0f:6f:e9:b4:01:12:3b:9e:b6
    Signature Algorithm: sha256WithRSAEncryption
        Issuer: CN=ChangeMe
        Validity
            Not Before: May 11 19:13:03 2018 GMT
            Not After : May  8 19:13:03 2028 GMT
        Subject: CN=myvpn-200.1.1.192-DESKTOP-RCI6H7M
        Subject Public Key Info:
            Public Key Algorithm: rsaEncryption
                Public-Key: (2048 bit)
                Modulus:
                    00:b1:50:56:c3:e8:0f:a5:59:2c:79:e9:75:18:95:
                    e3:98:34:4f:79:7c:c2:c9:e7:30:bc:69:7e:df:7d:
                    90:38:40:70:11:c4:75:0b:65:92:c3:92:c3:1b:99:
                    86:e8:a5:44:05:c3:0f:d0:9e:b7:e6:6f:d1:e6:6c:
                    3e:22:3a:d7:0a:35:37:84:41:bd:ef:b9:c4:a6:3d:
                    eb:29:31:c2:be:86:2b:c8:5d:23:8b:18:1e:24:39:
                    27:43:18:4f:b3:3f:c7:7a:34:0c:e4:df:22:69:c1:
                    95:f0:17:7e:1b:ef:47:70:46:7d:5c:19:ac:6f:4a:
                    8b:18:b4:eb:f0:09:e5:8b:42:9c:94:ea:c9:8a:1a:
                    c2:09:f5:b6:0e:b2:e8:8c:32:34:d6:37:f0:e6:24:
                    d6:21:5d:eb:02:89:37:3e:96:65:86:24:c7:cd:d9:
                    7f:62:e4:07:9b:ac:a3:85:b5:0c:93:ac:e4:bb:52:
                    d1:c0:82:63:cf:ac:a2:17:94:e4:92:9c:e1:48:b1:
                    25:0e:ae:1e:56:d0:6d:26:59:14:fb:5d:0b:f5:41:
                    2b:4d:c0:4e:65:c1:02:51:fc:bf:b3:1c:de:b7:18:
                    41:ed:52:32:c6:25:05:2d:89:36:a0:a3:92:41:80:
                    e8:02:17:63:6d:46:d5:d7:b3:86:7c:67:f2:c8:78:
                    0c:79
                Exponent: 65537 (0x10001)
        X509v3 extensions:
            X509v3 Basic Constraints: 
                CA:FALSE
            X509v3 Subject Key Identifier: 
                C4:57:82:36:B5:31:6B:A4:65:96:3B:9C:F1:B4:39:DC:A6:95:B0:51
            X509v3 Authority Key Identifier: 
                keyid:AD:9F:2E:18:C2:8E:15:00:47:07:DA:B9:45:77:FC:40:86:03:49:DF
                DirName:/CN=ChangeMe
                serial:CF:7B:9B:42:5F:59:AA:1B

            X509v3 Extended Key Usage: 
                TLS Web Client Authentication
            X509v3 Key Usage: 
                Digital Signature
    Signature Algorithm: sha256WithRSAEncryption
         a0:73:f5:92:8a:39:44:7a:fc:a6:e6:c6:e4:2e:71:ef:84:57:
         4c:58:d3:b7:39:fd:f7:27:1b:46:c1:21:45:15:5f:ed:54:90:
         14:b8:e6:16:6e:11:6b:2c:f1:9e:42:90:92:bd:88:6b:00:38:
         04:b4:62:c1:b7:ec:3e:92:df:18:be:d6:4b:d9:14:3b:77:d6:
         c4:9a:79:31:35:29:92:7f:36:a8:2f:8d:bb:73:73:41:30:39:
         36:c5:2b:f8:79:30:e7:ea:7c:74:0f:d1:05:b8:72:be:21:e5:
         00:af:ae:4b:fa:84:bf:26:62:f6:0d:28:f4:e6:34:ee:e8:7a:
         81:60:1b:2e:47:8a:ca:a4:f3:73:cd:fc:e5:e7:b4:d6:07:09:
         93:f8:42:6c:0c:b7:33:04:34:fa:93:9c:07:3e:3e:98:1c:0e:
         c2:67:b4:da:09:29:bb:7a:e0:23:06:e0:d1:63:ad:8e:1c:82:
         0e:a9:dd:57:a5:aa:fd:c1:a3:ea:27:af:3c:26:9a:33:7f:d9:
         a4:98:77:1f:6c:79:c8:a0:53:da:68:93:71:c8:3a:73:60:2e:
         c4:d8:98:ef:fc:f6:8e:30:be:9b:43:ac:ac:0e:f9:ed:6f:04:
         6d:af:2f:52:90:da:8b:0b:26:10:20:36:78:ff:81:8d:b1:ef:
         7a:70:eb:6b
-----BEGIN CERTIFICATE-----
MIIDXjCCAkagAwIBAgIQCbsNt17vsg9v6bQBEjuetjANBgkqhkiG9w0BAQsFADAT
MREwDwYDVQQDDAhDaGFuZ2VNZTAeFw0xODA1MTExOTEzMDNaFw0yODA1MDgxOTEz
MDNaMCwxKjAoBgNVBAMMIW15dnBuLTIwMC4xLjEuMTkyLURFU0tUT1AtUkNJNkg3
TTCCASIwDQYJKoZIhvcNAQEBBQADggEPADCCAQoCggEBALFQVsPoD6VZLHnpdRiV
45g0T3l8wsnnMLxpft99kDhAcBHEdQtlksOSwxuZhuilRAXDD9Cet+Zv0eZsPiI6
1wo1N4RBve+5xKY96ykxwr6GK8hdI4sYHiQ5J0MYT7M/x3o0DOTfImnBlfAXfhvv
R3BGfVwZrG9Kixi06/AJ5YtCnJTqyYoawgn1tg6y6IwyNNY38OYk1iFd6wKJNz6W
ZYYkx83Zf2LkB5uso4W1DJOs5LtS0cCCY8+soheU5JKc4UixJQ6uHlbQbSZZFPtd
C/VBK03ATmXBAlH8v7Mc3rcYQe1SMsYlBS2JNqCjkkGA6AIXY21G1dezhnxn8sh4
DHkCAwEAAaOBlDCBkTAJBgNVHRMEAjAAMB0GA1UdDgQWBBTEV4I2tTFrpGWWO5zx
tDncppWwUTBDBgNVHSMEPDA6gBStny4Ywo4VAEcH2rlFd/xAhgNJ36EXpBUwEzER
MA8GA1UEAwwIQ2hhbmdlTWWCCQDPe5tCX1mqGzATBgNVHSUEDDAKBggrBgEFBQcD
AjALBgNVHQ8EBAMCB4AwDQYJKoZIhvcNAQELBQADggEBAKBz9ZKKOUR6/KbmxuQu
ce+EV0xY07c5/fcnG0bBIUUVX+1UkBS45hZuEWss8Z5CkJK9iGsAOAS0YsG37D6S
3xi+1kvZFDt31sSaeTE1KZJ/Nqgvjbtzc0EwOTbFK/h5MOfqfHQP0QW4cr4h5QCv
rkv6hL8mYvYNKPTmNO7oeoFgGy5Hisqk83PN/OXntNYHCZP4QmwMtzMENPqTnAc+
PpgcDsJntNoJKbt64CMG4NFjrY4cgg6p3Velqv3Bo+onrzwmmjN/2aSYdx9secig
U9pok3HIOnNgLsTYmO/89o4wvptDrKwO+e1vBG2vL1KQ2osLJhAgNnj/gY2x73pw
62s=
-----END CERTIFICATE-----
