Certificate:
    Data:
        Version: 3 (0x2)
        Serial Number:
            0f:46:b0:85:b3:14:a5:f5:9e:2e:d6:c5:41:3d:91:47
    Signature Algorithm: sha256WithRSAEncryption
        Issuer: CN=ChangeMe
        Validity
            Not Before: Apr 27 17:07:22 2018 GMT
            Not After : Apr 24 17:07:22 2028 GMT
        Subject: CN=myvpn-200.1.1.149-android-a13ec45286d07430
        Subject Public Key Info:
            Public Key Algorithm: rsaEncryption
                Public-Key: (2048 bit)
                Modulus:
                    00:cb:b6:c1:98:f7:72:a5:36:7a:cb:fe:d0:7d:c6:
                    30:87:83:9c:79:c5:1e:42:51:fd:22:11:be:1b:87:
                    41:be:a5:af:61:87:c2:3b:ca:cb:b3:48:b2:af:7a:
                    19:a2:fa:22:8c:38:4a:7a:46:38:45:71:b7:4a:43:
                    c1:ef:2d:f0:64:32:cf:53:6b:3a:c7:3c:18:85:d7:
                    09:4a:60:3c:69:54:f2:98:98:00:59:f9:35:48:b1:
                    61:bb:19:a0:37:a0:f5:95:4e:14:27:6f:19:d0:08:
                    54:7d:5b:0d:5c:aa:e5:98:38:b4:d3:d3:b6:98:20:
                    f3:fb:c7:c9:08:c9:03:62:0c:fc:23:a0:7d:7b:a2:
                    25:71:63:e5:25:ec:f5:10:e0:1e:c4:df:b2:1c:ff:
                    50:52:b3:e8:99:e4:7a:a1:ff:62:61:a5:e2:9b:08:
                    e5:c1:87:e6:52:f3:d9:86:58:21:81:c2:ca:c7:e4:
                    c7:0a:d2:5d:e1:db:49:c1:52:57:c8:28:10:cc:70:
                    f0:f8:d4:99:4d:ad:58:67:b7:fa:97:60:72:c6:f0:
                    78:1f:dd:d8:1c:49:68:df:10:72:d7:30:22:39:52:
                    a6:af:e7:e0:8b:c3:99:60:99:83:7b:2b:d0:80:0c:
                    62:da:8d:0c:fd:6f:79:ef:3f:d6:5e:b0:d1:65:e5:
                    3a:ef
                Exponent: 65537 (0x10001)
        X509v3 extensions:
            X509v3 Basic Constraints: 
                CA:FALSE
            X509v3 Subject Key Identifier: 
                DD:70:00:08:44:CA:BC:78:AA:6F:E4:8C:C3:C1:7F:D2:4A:35:B2:E6
            X509v3 Authority Key Identifier: 
                keyid:AD:9F:2E:18:C2:8E:15:00:47:07:DA:B9:45:77:FC:40:86:03:49:DF
                DirName:/CN=ChangeMe
                serial:CF:7B:9B:42:5F:59:AA:1B

            X509v3 Extended Key Usage: 
                TLS Web Client Authentication
            X509v3 Key Usage: 
                Digital Signature
    Signature Algorithm: sha256WithRSAEncryption
         66:b0:e8:90:d7:96:e0:74:5b:11:65:56:35:d0:c3:e4:9d:74:
         2a:7f:21:42:f9:c4:c7:0d:8f:43:3e:fd:4a:d6:1b:d1:9b:29:
         06:a4:b5:cd:e2:2c:7f:22:b1:b4:de:86:89:ad:b5:ce:d9:d5:
         9d:db:ca:38:26:14:e4:cc:81:bc:a2:c9:3e:31:95:c8:f8:b0:
         ad:9b:34:ec:6d:ce:f8:51:93:00:8e:a1:a3:8b:6a:bd:8d:aa:
         43:80:de:81:a2:65:df:8c:d9:39:73:eb:5c:a3:82:ba:17:53:
         d2:b8:a8:5b:f8:f3:70:df:b3:98:c9:22:e6:4a:ad:24:b9:ec:
         d0:ab:c6:29:ea:18:ec:90:a1:8b:d5:df:13:71:a7:94:72:8d:
         12:0f:8a:0b:24:40:c4:34:08:28:2c:03:31:5b:1d:e2:ec:e4:
         e9:2c:dc:c2:15:12:48:d5:bf:c2:04:5f:d1:0e:ac:a7:8a:01:
         7d:7e:13:ee:3e:38:ec:5b:44:20:65:cf:75:ea:4f:ec:84:52:
         70:45:9e:68:54:09:14:39:ae:87:6e:47:33:94:4b:50:5e:e4:
         47:5c:49:41:91:0e:5a:89:a9:e0:69:55:3c:13:1e:f3:00:a4:
         5d:0e:01:fe:ea:38:02:ac:79:8c:9f:cc:dc:93:4c:4f:64:f4:
         b7:17:e3:9c
-----BEGIN CERTIFICATE-----
MIIDZzCCAk+gAwIBAgIQD0awhbMUpfWeLtbFQT2RRzANBgkqhkiG9w0BAQsFADAT
MREwDwYDVQQDDAhDaGFuZ2VNZTAeFw0xODA0MjcxNzA3MjJaFw0yODA0MjQxNzA3
MjJaMDUxMzAxBgNVBAMMKm15dnBuLTIwMC4xLjEuMTQ5LWFuZHJvaWQtYTEzZWM0
NTI4NmQwNzQzMDCCASIwDQYJKoZIhvcNAQEBBQADggEPADCCAQoCggEBAMu2wZj3
cqU2esv+0H3GMIeDnHnFHkJR/SIRvhuHQb6lr2GHwjvKy7NIsq96GaL6Iow4SnpG
OEVxt0pDwe8t8GQyz1NrOsc8GIXXCUpgPGlU8piYAFn5NUixYbsZoDeg9ZVOFCdv
GdAIVH1bDVyq5Zg4tNPTtpgg8/vHyQjJA2IM/COgfXuiJXFj5SXs9RDgHsTfshz/
UFKz6JnkeqH/YmGl4psI5cGH5lLz2YZYIYHCysfkxwrSXeHbScFSV8goEMxw8PjU
mU2tWGe3+pdgcsbweB/d2BxJaN8QctcwIjlSpq/n4IvDmWCZg3sr0IAMYtqNDP1v
ee8/1l6w0WXlOu8CAwEAAaOBlDCBkTAJBgNVHRMEAjAAMB0GA1UdDgQWBBTdcAAI
RMq8eKpv5IzDwX/SSjWy5jBDBgNVHSMEPDA6gBStny4Ywo4VAEcH2rlFd/xAhgNJ
36EXpBUwEzERMA8GA1UEAwwIQ2hhbmdlTWWCCQDPe5tCX1mqGzATBgNVHSUEDDAK
BggrBgEFBQcDAjALBgNVHQ8EBAMCB4AwDQYJKoZIhvcNAQELBQADggEBAGaw6JDX
luB0WxFlVjXQw+SddCp/IUL5xMcNj0M+/UrWG9GbKQaktc3iLH8isbTehomttc7Z
1Z3byjgmFOTMgbyiyT4xlcj4sK2bNOxtzvhRkwCOoaOLar2NqkOA3oGiZd+M2Tlz
61yjgroXU9K4qFv483Dfs5jJIuZKrSS57NCrxinqGOyQoYvV3xNxp5RyjRIPigsk
QMQ0CCgsAzFbHeLs5Oks3MIVEkjVv8IEX9EOrKeKAX1+E+4+OOxbRCBlz3XqT+yE
UnBFnmhUCRQ5roduRzOUS1Be5EdcSUGRDlqJqeBpVTwTHvMApF0OAf7qOAKseYyf
zNyTTE9k9LcX45w=
-----END CERTIFICATE-----
