Certificate:
    Data:
        Version: 3 (0x2)
        Serial Number:
            2f:4f:e1:4d:77:2b:a5:71:e2:70:0d:c3:11:b9:c7:1b
    Signature Algorithm: sha256WithRSAEncryption
        Issuer: CN=ChangeMe
        Validity
            Not Before: May 11 16:47:04 2018 GMT
            Not After : May  8 16:47:04 2028 GMT
        Subject: CN=myvpn-200.1.1.48-HUAWEI_P20_Pro-8e290daa18
        Subject Public Key Info:
            Public Key Algorithm: rsaEncryption
                Public-Key: (2048 bit)
                Modulus:
                    00:c5:3d:25:1b:c1:74:8f:b5:9f:0d:96:a3:b4:e0:
                    ef:be:38:39:f7:1c:f7:dd:27:00:7a:ef:29:a5:9d:
                    b1:70:90:2f:d8:7e:26:07:00:95:99:73:8d:61:d0:
                    1a:cf:bb:e8:d4:a4:c1:f9:ea:3d:79:d4:ce:05:5a:
                    0d:0d:f3:81:f3:d3:42:96:ae:b6:0f:21:9b:dc:bf:
                    6a:14:a1:d1:c1:af:f7:1c:a1:74:46:f3:8f:8a:6b:
                    75:12:14:2c:44:84:32:c9:b2:92:cb:dc:4c:30:b3:
                    b0:ce:8c:8c:df:f6:50:ba:39:2e:22:cc:58:14:e8:
                    b3:4d:3a:46:02:d4:c7:ce:73:ec:fc:3b:28:6c:55:
                    1d:7a:f6:5c:c7:bf:fc:e1:b3:a5:f7:1c:82:b2:e2:
                    91:af:92:73:eb:1a:16:ed:cc:ea:d5:3c:19:5e:9f:
                    6f:67:17:ee:9e:c3:bd:aa:01:fe:4d:a7:97:59:e4:
                    9a:9b:87:b3:1b:11:f1:23:42:1d:c0:99:2c:03:20:
                    99:e9:13:95:90:a1:8f:80:50:12:63:84:86:df:2f:
                    98:23:ca:87:43:7d:9c:39:f0:90:95:34:6c:f1:46:
                    72:0d:6d:ce:ca:13:4d:4c:cb:86:72:a0:53:64:dc:
                    85:64:a1:d0:3a:19:43:50:4f:ad:98:79:07:27:9b:
                    92:6f
                Exponent: 65537 (0x10001)
        X509v3 extensions:
            X509v3 Basic Constraints: 
                CA:FALSE
            X509v3 Subject Key Identifier: 
                17:13:3D:B0:C7:08:ED:B4:6C:8E:D9:55:1C:4D:C0:DA:39:E9:A2:01
            X509v3 Authority Key Identifier: 
                keyid:AD:9F:2E:18:C2:8E:15:00:47:07:DA:B9:45:77:FC:40:86:03:49:DF
                DirName:/CN=ChangeMe
                serial:CF:7B:9B:42:5F:59:AA:1B

            X509v3 Extended Key Usage: 
                TLS Web Client Authentication
            X509v3 Key Usage: 
                Digital Signature
    Signature Algorithm: sha256WithRSAEncryption
         0a:61:d3:6c:ae:8e:bb:5b:c2:08:2c:f3:30:81:a1:58:3c:69:
         af:4b:99:f6:69:6d:67:02:ad:b9:84:ea:4f:b7:3e:42:d3:c7:
         b7:0b:4d:5e:45:a7:65:48:ee:c0:d3:40:66:c2:cf:df:40:78:
         b3:e3:9e:1a:13:73:78:b4:c2:c4:3d:0d:77:7e:50:0e:5b:8e:
         1a:cb:ef:17:d4:1a:b6:66:b6:53:f0:b0:79:2e:f0:70:14:ab:
         d7:d0:bb:99:b0:83:2e:6d:fc:d1:1a:b0:31:00:a1:c0:78:b4:
         cf:92:28:03:8c:5f:73:71:d8:82:c0:91:4e:bb:30:87:58:f3:
         d2:40:18:b8:69:54:7b:c8:76:03:e3:12:6e:e8:b1:69:f8:d7:
         51:49:03:34:2a:ef:93:7e:c5:a5:6e:47:d3:a7:92:12:ce:ae:
         cb:c4:74:0e:78:6d:73:dc:b8:0e:78:14:c0:cb:40:8b:2c:cd:
         f7:38:a7:b5:74:61:bb:4e:50:9d:60:9d:5e:71:ff:1f:98:62:
         f1:cc:d0:ab:0e:65:02:3b:2a:74:e7:7d:15:57:88:89:9a:56:
         aa:f4:a3:8f:79:b2:80:c8:4c:b1:28:7c:7b:6c:0b:1c:45:b4:
         1a:33:01:c9:fb:07:ff:17:f3:9c:9d:d7:f1:55:b3:16:04:4f:
         2f:6e:95:07
-----BEGIN CERTIFICATE-----
MIIDZzCCAk+gAwIBAgIQL0/hTXcrpXHicA3DEbnHGzANBgkqhkiG9w0BAQsFADAT
MREwDwYDVQQDDAhDaGFuZ2VNZTAeFw0xODA1MTExNjQ3MDRaFw0yODA1MDgxNjQ3
MDRaMDUxMzAxBgNVBAMMKm15dnBuLTIwMC4xLjEuNDgtSFVBV0VJX1AyMF9Qcm8t
OGUyOTBkYWExODCCASIwDQYJKoZIhvcNAQEBBQADggEPADCCAQoCggEBAMU9JRvB
dI+1nw2Wo7Tg7744Ofcc990nAHrvKaWdsXCQL9h+JgcAlZlzjWHQGs+76NSkwfnq
PXnUzgVaDQ3zgfPTQpautg8hm9y/ahSh0cGv9xyhdEbzj4prdRIULESEMsmyksvc
TDCzsM6MjN/2ULo5LiLMWBTos006RgLUx85z7Pw7KGxVHXr2XMe//OGzpfccgrLi
ka+Sc+saFu3M6tU8GV6fb2cX7p7DvaoB/k2nl1nkmpuHsxsR8SNCHcCZLAMgmekT
lZChj4BQEmOEht8vmCPKh0N9nDnwkJU0bPFGcg1tzsoTTUzLhnKgU2TchWSh0DoZ
Q1BPrZh5Byebkm8CAwEAAaOBlDCBkTAJBgNVHRMEAjAAMB0GA1UdDgQWBBQXEz2w
xwjttGyO2VUcTcDaOemiATBDBgNVHSMEPDA6gBStny4Ywo4VAEcH2rlFd/xAhgNJ
36EXpBUwEzERMA8GA1UEAwwIQ2hhbmdlTWWCCQDPe5tCX1mqGzATBgNVHSUEDDAK
BggrBgEFBQcDAjALBgNVHQ8EBAMCB4AwDQYJKoZIhvcNAQELBQADggEBAAph02yu
jrtbwggs8zCBoVg8aa9LmfZpbWcCrbmE6k+3PkLTx7cLTV5Fp2VI7sDTQGbCz99A
eLPjnhoTc3i0wsQ9DXd+UA5bjhrL7xfUGrZmtlPwsHku8HAUq9fQu5mwgy5t/NEa
sDEAocB4tM+SKAOMX3Nx2ILAkU67MIdY89JAGLhpVHvIdgPjEm7osWn411FJAzQq
75N+xaVuR9OnkhLOrsvEdA54bXPcuA54FMDLQIsszfc4p7V0YbtOUJ1gnV5x/x+Y
YvHM0KsOZQI7KnTnfRVXiImaVqr0o495soDITLEofHtsCxxFtBozAcn7B/8X85yd
1/FVsxYETy9ulQc=
-----END CERTIFICATE-----
