Certificate:
    Data:
        Version: 3 (0x2)
        Serial Number:
            32:34:49:64:87:b1:32:c7:48:b2:9d:be:8b:51:7c:c3
    Signature Algorithm: sha256WithRSAEncryption
        Issuer: CN=ChangeMe
        Validity
            Not Before: Mar 30 13:59:30 2018 GMT
            Not After : Mar 27 13:59:30 2028 GMT
        Subject: CN=GAVPN
        Subject Public Key Info:
            Public Key Algorithm: rsaEncryption
                Public-Key: (2048 bit)
                Modulus:
                    00:ac:06:79:50:f3:b9:4d:72:70:60:35:ad:cc:b4:
                    be:14:72:eb:26:83:67:58:c3:73:a0:ae:ac:be:f4:
                    0f:91:33:03:b7:56:84:c8:28:e2:6e:9b:b1:c0:89:
                    99:d2:95:4f:7f:79:af:ff:a0:ff:e4:12:c9:35:03:
                    3b:90:f9:7c:56:d3:39:e7:4f:e9:2f:fb:bd:63:25:
                    38:8c:57:f8:6e:d8:e9:70:22:20:e6:9a:9a:1d:d4:
                    14:bf:45:58:2e:20:90:7c:9a:c9:f1:6b:ae:85:f2:
                    04:b0:0c:a3:7d:ab:d5:06:93:94:08:c3:30:d4:f5:
                    18:99:70:13:cd:93:63:91:8f:eb:82:33:95:a2:80:
                    3b:01:3a:f4:5e:49:5a:7b:45:80:2d:7a:07:3a:64:
                    38:f7:97:13:7c:ad:e5:60:ba:52:a1:9c:5f:e5:52:
                    3a:ad:a3:6c:df:03:23:94:f7:03:99:82:8f:a6:30:
                    b4:6c:ab:51:f2:e2:e5:41:e0:46:a9:2e:92:9f:be:
                    5f:fc:5a:7c:db:fb:72:14:91:b8:be:cf:8a:6f:9e:
                    04:4a:da:4c:8b:78:5c:c6:20:b7:e8:f9:00:64:0a:
                    94:b4:2a:73:1d:88:0e:79:03:3c:c7:e9:58:2b:73:
                    1a:68:fb:d5:25:cb:99:df:d1:85:bb:a7:2f:6c:2c:
                    00:db
                Exponent: 65537 (0x10001)
        X509v3 extensions:
            X509v3 Basic Constraints: 
                CA:FALSE
            X509v3 Subject Key Identifier: 
                AA:44:9B:40:86:5E:16:91:52:88:A3:28:4D:FD:C3:01:9E:9D:09:EC
            X509v3 Authority Key Identifier: 
                keyid:AD:9F:2E:18:C2:8E:15:00:47:07:DA:B9:45:77:FC:40:86:03:49:DF
                DirName:/CN=ChangeMe
                serial:CF:7B:9B:42:5F:59:AA:1B

            X509v3 Extended Key Usage: 
                TLS Web Client Authentication
            X509v3 Key Usage: 
                Digital Signature
    Signature Algorithm: sha256WithRSAEncryption
         93:7d:5a:1f:92:f1:c1:e8:59:08:cb:c0:91:db:68:7d:fb:60:
         43:f4:ee:7d:c9:fd:2f:e8:ca:79:65:80:8a:3f:2a:ed:62:32:
         0a:2e:71:c0:d7:1f:68:2d:1e:b4:d7:60:67:67:5a:cb:46:f0:
         cf:88:75:19:0d:36:f9:a2:a4:1e:d7:db:f2:a5:18:e8:6a:51:
         e4:fa:30:d0:cd:7f:8b:9c:45:30:d3:f9:60:aa:a3:a9:68:4f:
         24:03:51:3d:79:61:b6:b2:3b:bc:3b:9f:6d:87:7c:b7:4c:ff:
         64:8b:09:cc:d1:07:b0:2f:64:b3:c2:15:c0:6c:70:2c:68:0c:
         41:44:1d:47:d6:b6:12:b0:76:3b:bb:e7:eb:e6:25:01:34:1b:
         00:61:bd:63:d7:0c:27:17:ec:92:f7:f5:11:03:ff:64:14:4a:
         a7:ec:55:a5:27:25:de:41:74:41:dd:da:b7:ec:e8:82:ac:f6:
         76:47:ec:7a:be:23:fb:ad:9f:14:7e:ce:ff:71:21:86:d0:96:
         0b:5c:81:ad:3f:40:61:95:a9:be:bc:b1:d7:8c:a3:5a:e7:f5:
         2e:aa:c1:32:8e:c8:ac:0b:cc:14:1d:45:c2:0d:93:86:95:a4:
         e7:1b:cc:6f:32:52:5b:bb:19:96:7e:46:6d:95:6f:1c:67:e8:
         a5:fc:f3:ad
-----BEGIN CERTIFICATE-----
MIIDQjCCAiqgAwIBAgIQMjRJZIexMsdIsp2+i1F8wzANBgkqhkiG9w0BAQsFADAT
MREwDwYDVQQDDAhDaGFuZ2VNZTAeFw0xODAzMzAxMzU5MzBaFw0yODAzMjcxMzU5
MzBaMBAxDjAMBgNVBAMMBUdBVlBOMIIBIjANBgkqhkiG9w0BAQEFAAOCAQ8AMIIB
CgKCAQEArAZ5UPO5TXJwYDWtzLS+FHLrJoNnWMNzoK6svvQPkTMDt1aEyCjibpux
wImZ0pVPf3mv/6D/5BLJNQM7kPl8VtM550/pL/u9YyU4jFf4btjpcCIg5pqaHdQU
v0VYLiCQfJrJ8WuuhfIEsAyjfavVBpOUCMMw1PUYmXATzZNjkY/rgjOVooA7ATr0
Xklae0WALXoHOmQ495cTfK3lYLpSoZxf5VI6raNs3wMjlPcDmYKPpjC0bKtR8uLl
QeBGqS6Sn75f/Fp82/tyFJG4vs+Kb54EStpMi3hcxiC36PkAZAqUtCpzHYgOeQM8
x+lYK3MaaPvVJcuZ39GFu6cvbCwA2wIDAQABo4GUMIGRMAkGA1UdEwQCMAAwHQYD
VR0OBBYEFKpEm0CGXhaRUoijKE39wwGenQnsMEMGA1UdIwQ8MDqAFK2fLhjCjhUA
RwfauUV3/ECGA0nfoRekFTATMREwDwYDVQQDDAhDaGFuZ2VNZYIJAM97m0JfWaob
MBMGA1UdJQQMMAoGCCsGAQUFBwMCMAsGA1UdDwQEAwIHgDANBgkqhkiG9w0BAQsF
AAOCAQEAk31aH5LxwehZCMvAkdtofftgQ/Tufcn9L+jKeWWAij8q7WIyCi5xwNcf
aC0etNdgZ2day0bwz4h1GQ02+aKkHtfb8qUY6GpR5Pow0M1/i5xFMNP5YKqjqWhP
JANRPXlhtrI7vDufbYd8t0z/ZIsJzNEHsC9ks8IVwGxwLGgMQUQdR9a2ErB2O7vn
6+YlATQbAGG9Y9cMJxfskvf1EQP/ZBRKp+xVpScl3kF0Qd3at+zogqz2dkfser4j
+62fFH7O/3EhhtCWC1yBrT9AYZWpvryx14yjWuf1LqrBMo7IrAvMFB1Fwg2ThpWk
5xvMbzJSW7sZln5GbZVvHGfopfzzrQ==
-----END CERTIFICATE-----
