Certificate:
    Data:
        Version: 3 (0x2)
        Serial Number:
            3e:5e:ab:d6:f0:82:36:3d:68:ad:bf:84:38:fd:36:08
    Signature Algorithm: sha256WithRSAEncryption
        Issuer: CN=ChangeMe
        Validity
            Not Before: Apr 27 19:50:37 2018 GMT
            Not After : Apr 24 19:50:37 2028 GMT
        Subject: CN=myvpn-200.1.1.9-iPhone
        Subject Public Key Info:
            Public Key Algorithm: rsaEncryption
                Public-Key: (2048 bit)
                Modulus:
                    00:c7:13:6d:36:0f:1f:ed:67:c6:5f:d7:4b:dc:a2:
                    5a:e7:ce:82:cc:5d:b7:78:a0:4e:2e:01:f7:fc:a9:
                    b8:a4:9f:51:16:04:e2:a7:88:d8:80:30:35:52:ad:
                    29:61:f2:5d:cb:b2:3a:af:22:90:f7:54:5d:d0:f8:
                    d8:97:b0:8e:43:99:ef:68:ed:ab:e2:9a:39:61:f4:
                    f5:27:b7:bd:57:01:a1:49:61:f0:6c:c6:f6:53:96:
                    6f:06:e3:6c:b7:d1:a2:54:3a:8b:d3:c5:fa:c2:16:
                    c5:af:2e:c4:98:b5:b0:43:d2:e9:ee:e2:9f:df:65:
                    b6:67:c2:cd:af:c5:b2:6e:ac:b2:9f:ae:2d:38:ec:
                    40:52:35:47:79:26:82:f0:dd:90:fd:da:f0:ff:63:
                    75:94:9a:f3:b4:88:c4:8c:3c:3a:cc:bb:1c:3c:0c:
                    48:84:5e:fa:e0:d4:e5:39:07:58:9b:fd:d1:11:7f:
                    b8:07:43:04:f6:f5:ab:c6:cc:85:9c:ea:ac:6e:56:
                    ad:e8:f2:6b:e3:19:16:5a:1d:ba:9d:47:8e:2c:c5:
                    56:05:07:7d:53:33:5d:ed:16:c5:d5:fa:9a:62:60:
                    a1:15:6b:35:60:f1:e8:99:6d:6b:b4:7b:98:db:c6:
                    22:83:3c:11:f9:8e:c0:7f:c5:85:c6:c0:84:6a:8c:
                    6c:cb
                Exponent: 65537 (0x10001)
        X509v3 extensions:
            X509v3 Basic Constraints: 
                CA:FALSE
            X509v3 Subject Key Identifier: 
                F8:37:EC:60:B1:2B:D8:C3:3F:02:26:37:1F:54:DC:02:59:66:2E:89
            X509v3 Authority Key Identifier: 
                keyid:AD:9F:2E:18:C2:8E:15:00:47:07:DA:B9:45:77:FC:40:86:03:49:DF
                DirName:/CN=ChangeMe
                serial:CF:7B:9B:42:5F:59:AA:1B

            X509v3 Extended Key Usage: 
                TLS Web Client Authentication
            X509v3 Key Usage: 
                Digital Signature
    Signature Algorithm: sha256WithRSAEncryption
         c1:42:07:6a:45:5e:e3:20:75:08:4b:8c:b1:27:bb:dc:c7:a8:
         41:98:ce:35:27:e9:7f:9a:bc:8b:3d:0a:d2:3f:7b:9d:1f:d6:
         93:3e:e5:39:75:04:0d:06:41:82:7a:76:c2:8b:14:ed:72:93:
         c2:c5:c1:f6:51:56:33:78:66:f0:e1:a8:0c:fc:ad:74:19:4d:
         cb:85:4b:ea:d1:ca:0e:0a:a8:06:90:4a:17:8d:c8:d3:30:45:
         2e:f0:77:2d:cc:d2:16:ea:82:29:97:1b:26:6d:bd:d4:d9:43:
         7b:41:e2:73:8f:33:9e:a9:1c:08:76:ca:7d:94:fe:ab:93:31:
         4c:c1:67:b2:33:33:aa:36:22:31:c1:b7:78:36:c3:90:24:e7:
         12:44:e9:8f:0d:7b:de:73:be:d8:29:f7:f2:69:6b:8a:24:d1:
         7a:86:47:bf:d5:cc:94:60:58:cd:11:f0:4b:51:99:e6:0c:cf:
         f0:17:8d:33:7c:3e:e3:0e:c1:d9:23:93:2c:13:c9:ef:33:00:
         14:6e:87:d2:d8:e2:87:2c:3c:fd:80:13:a0:81:48:13:e8:94:
         ee:a0:5d:61:5a:ad:c7:16:66:76:f1:56:f7:6d:14:d8:09:95:
         1e:d5:9a:ca:2d:64:51:6f:58:5a:68:5c:b5:1b:0d:35:d4:e4:
         2b:cb:64:a2
-----BEGIN CERTIFICATE-----
MIIDUzCCAjugAwIBAgIQPl6r1vCCNj1orb+EOP02CDANBgkqhkiG9w0BAQsFADAT
MREwDwYDVQQDDAhDaGFuZ2VNZTAeFw0xODA0MjcxOTUwMzdaFw0yODA0MjQxOTUw
MzdaMCExHzAdBgNVBAMMFm15dnBuLTIwMC4xLjEuOS1pUGhvbmUwggEiMA0GCSqG
SIb3DQEBAQUAA4IBDwAwggEKAoIBAQDHE202Dx/tZ8Zf10vcolrnzoLMXbd4oE4u
Aff8qbikn1EWBOKniNiAMDVSrSlh8l3LsjqvIpD3VF3Q+NiXsI5Dme9o7avimjlh
9PUnt71XAaFJYfBsxvZTlm8G42y30aJUOovTxfrCFsWvLsSYtbBD0unu4p/fZbZn
ws2vxbJurLKfri047EBSNUd5JoLw3ZD92vD/Y3WUmvO0iMSMPDrMuxw8DEiEXvrg
1OU5B1ib/dERf7gHQwT29avGzIWc6qxuVq3o8mvjGRZaHbqdR44sxVYFB31TM13t
FsXV+ppiYKEVazVg8eiZbWu0e5jbxiKDPBH5jsB/xYXGwIRqjGzLAgMBAAGjgZQw
gZEwCQYDVR0TBAIwADAdBgNVHQ4EFgQU+DfsYLEr2MM/AiY3H1TcAllmLokwQwYD
VR0jBDwwOoAUrZ8uGMKOFQBHB9q5RXf8QIYDSd+hF6QVMBMxETAPBgNVBAMMCENo
YW5nZU1lggkAz3ubQl9ZqhswEwYDVR0lBAwwCgYIKwYBBQUHAwIwCwYDVR0PBAQD
AgeAMA0GCSqGSIb3DQEBCwUAA4IBAQDBQgdqRV7jIHUIS4yxJ7vcx6hBmM41J+l/
mryLPQrSP3udH9aTPuU5dQQNBkGCenbCixTtcpPCxcH2UVYzeGbw4agM/K10GU3L
hUvq0coOCqgGkEoXjcjTMEUu8HctzNIW6oIplxsmbb3U2UN7QeJzjzOeqRwIdsp9
lP6rkzFMwWeyMzOqNiIxwbd4NsOQJOcSROmPDXvec77YKffyaWuKJNF6hke/1cyU
YFjNEfBLUZnmDM/wF40zfD7jDsHZI5MsE8nvMwAUbofS2OKHLDz9gBOggUgT6JTu
oF1hWq3HFmZ28Vb3bRTYCZUe1ZrKLWRRb1haaFy1Gw011OQry2Si
-----END CERTIFICATE-----
