Certificate:
    Data:
        Version: 3 (0x2)
        Serial Number:
            42:cb:82:c9:36:63:77:61:5e:c3:2f:4b:a0:4d:93:82
    Signature Algorithm: sha256WithRSAEncryption
        Issuer: CN=ChangeMe
        Validity
            Not Before: Apr 21 00:02:59 2018 GMT
            Not After : Apr 18 00:02:59 2028 GMT
        Subject: CN=myvpn-gregport
        Subject Public Key Info:
            Public Key Algorithm: rsaEncryption
                Public-Key: (2048 bit)
                Modulus:
                    00:9f:04:47:6c:4e:1c:09:16:82:02:00:43:24:3a:
                    06:73:89:86:c3:c1:08:78:ea:a0:c5:3b:f8:88:15:
                    6a:22:c7:4a:44:e8:2c:fb:a5:81:db:80:30:e0:22:
                    a3:f4:8f:f4:9d:28:e9:1e:c1:c1:09:ed:ec:2c:83:
                    58:92:bf:39:4b:07:15:84:8e:c1:6f:99:dc:34:49:
                    5f:b6:49:e5:8c:5a:30:b0:be:28:45:0c:1b:43:7b:
                    f7:15:9a:a2:4b:1e:55:39:1a:5a:da:4c:53:a5:99:
                    77:8b:cf:d7:71:e6:01:10:83:54:b6:3a:8a:85:db:
                    59:1d:eb:aa:ca:a2:d5:24:27:46:5c:08:76:c3:31:
                    74:8e:53:48:6c:47:1b:7b:61:f2:7a:08:dc:8e:c5:
                    4b:fb:c2:20:e5:cf:f6:00:a4:ee:3e:90:af:72:8e:
                    8a:6b:6a:a5:83:e6:7f:7f:5d:a8:15:cc:56:9a:95:
                    f9:1e:30:af:76:c7:91:72:ab:23:79:2a:d3:09:45:
                    57:49:cb:15:83:21:40:51:b8:f8:9e:e2:30:f4:38:
                    c2:c8:71:07:87:64:2b:ac:51:de:4e:34:f8:4d:df:
                    46:ee:11:8f:15:27:e2:ae:f4:ef:a1:56:a8:2a:30:
                    c7:92:70:5c:04:6c:9e:40:f1:48:38:d5:74:53:6b:
                    1c:47
                Exponent: 65537 (0x10001)
        X509v3 extensions:
            X509v3 Basic Constraints: 
                CA:FALSE
            X509v3 Subject Key Identifier: 
                3B:9B:D9:B9:91:3F:96:8E:92:4C:41:45:E4:09:7D:B5:52:B3:8A:F7
            X509v3 Authority Key Identifier: 
                keyid:AD:9F:2E:18:C2:8E:15:00:47:07:DA:B9:45:77:FC:40:86:03:49:DF
                DirName:/CN=ChangeMe
                serial:CF:7B:9B:42:5F:59:AA:1B

            X509v3 Extended Key Usage: 
                TLS Web Client Authentication
            X509v3 Key Usage: 
                Digital Signature
    Signature Algorithm: sha256WithRSAEncryption
         5a:49:99:1f:f4:fd:3e:56:0b:f7:5c:0e:9d:57:33:aa:4f:83:
         61:90:28:01:ca:27:f1:a0:48:1b:20:26:9f:d0:31:70:09:d1:
         ce:c5:ef:64:ec:6b:c5:e2:0c:69:00:49:91:bb:51:94:90:53:
         5d:39:e6:26:51:87:71:95:49:fd:49:10:af:b3:eb:20:fc:8f:
         eb:6b:a8:58:f2:64:b1:cb:f6:e5:d0:d4:b3:26:ab:e4:61:30:
         00:64:e4:58:2e:43:73:23:b2:90:a6:47:36:a5:05:f5:a8:15:
         3f:b4:b0:d3:fa:f9:28:03:f4:a5:4b:89:e6:cd:0d:aa:ab:7f:
         27:0d:3b:fe:20:b6:f2:25:34:ed:67:69:b3:52:4d:9e:be:a0:
         a5:9a:42:aa:5d:2d:77:c2:47:fc:fa:14:90:f1:bd:25:bd:50:
         4a:ff:6c:c9:41:66:f9:f9:10:be:1b:ff:4e:35:a8:50:4f:3d:
         01:e3:0e:af:2d:0f:a3:6b:00:ed:ba:84:01:a7:b2:1c:10:03:
         fa:24:a6:34:44:3c:f4:34:32:d3:bb:e6:65:01:e9:96:ac:3a:
         cc:f1:18:ce:03:f5:8a:c1:2a:9b:7e:0b:3a:9d:4f:3b:13:b9:
         6a:a2:bd:cf:84:f8:d8:31:0e:67:57:d2:f7:a0:0a:41:b8:1d:
         75:6c:eb:6f
-----BEGIN CERTIFICATE-----
MIIDSzCCAjOgAwIBAgIQQsuCyTZjd2Fewy9LoE2TgjANBgkqhkiG9w0BAQsFADAT
MREwDwYDVQQDDAhDaGFuZ2VNZTAeFw0xODA0MjEwMDAyNTlaFw0yODA0MTgwMDAy
NTlaMBkxFzAVBgNVBAMMDm15dnBuLWdyZWdwb3J0MIIBIjANBgkqhkiG9w0BAQEF
AAOCAQ8AMIIBCgKCAQEAnwRHbE4cCRaCAgBDJDoGc4mGw8EIeOqgxTv4iBVqIsdK
ROgs+6WB24Aw4CKj9I/0nSjpHsHBCe3sLINYkr85SwcVhI7Bb5ncNElftknljFow
sL4oRQwbQ3v3FZqiSx5VORpa2kxTpZl3i8/XceYBEINUtjqKhdtZHeuqyqLVJCdG
XAh2wzF0jlNIbEcbe2HyegjcjsVL+8Ig5c/2AKTuPpCvco6Ka2qlg+Z/f12oFcxW
mpX5HjCvdseRcqsjeSrTCUVXScsVgyFAUbj4nuIw9DjCyHEHh2QrrFHeTjT4Td9G
7hGPFSfirvTvoVaoKjDHknBcBGyeQPFIONV0U2scRwIDAQABo4GUMIGRMAkGA1Ud
EwQCMAAwHQYDVR0OBBYEFDub2bmRP5aOkkxBReQJfbVSs4r3MEMGA1UdIwQ8MDqA
FK2fLhjCjhUARwfauUV3/ECGA0nfoRekFTATMREwDwYDVQQDDAhDaGFuZ2VNZYIJ
AM97m0JfWaobMBMGA1UdJQQMMAoGCCsGAQUFBwMCMAsGA1UdDwQEAwIHgDANBgkq
hkiG9w0BAQsFAAOCAQEAWkmZH/T9PlYL91wOnVczqk+DYZAoAcon8aBIGyAmn9Ax
cAnRzsXvZOxrxeIMaQBJkbtRlJBTXTnmJlGHcZVJ/UkQr7PrIPyP62uoWPJkscv2
5dDUsyar5GEwAGTkWC5DcyOykKZHNqUF9agVP7Sw0/r5KAP0pUuJ5s0Nqqt/Jw07
/iC28iU07Wdps1JNnr6gpZpCql0td8JH/PoUkPG9Jb1QSv9syUFm+fkQvhv/TjWo
UE89AeMOry0Po2sA7bqEAaeyHBAD+iSmNEQ89DQy07vmZQHplqw6zPEYzgP1isEq
m34LOp1POxO5aqK9z4T42DEOZ1fS96AKQbgddWzrbw==
-----END CERTIFICATE-----
