Certificate:
    Data:
        Version: 3 (0x2)
        Serial Number:
            61:ac:22:29:e8:27:98:5e:75:26:4c:0c:80:14:4b:5e
    Signature Algorithm: sha256WithRSAEncryption
        Issuer: CN=ChangeMe
        Validity
            Not Before: May  7 14:40:32 2018 GMT
            Not After : May  4 14:40:32 2028 GMT
        Subject: CN=myvpn-200.1.1.11-WINC-00-00
        Subject Public Key Info:
            Public Key Algorithm: rsaEncryption
                Public-Key: (2048 bit)
                Modulus:
                    00:b3:a4:c7:81:56:e8:35:41:d8:81:c1:d1:62:f2:
                    96:c3:99:ec:18:5c:4e:2b:f0:ed:b3:ff:75:c1:5d:
                    e8:79:04:f8:14:40:91:17:6a:86:2a:1b:9a:de:0d:
                    36:09:80:60:cc:f5:9c:07:aa:b8:53:27:75:80:1e:
                    30:0e:02:7e:6c:a0:b7:44:99:ff:dc:c7:75:42:af:
                    12:d6:3f:31:69:68:ae:23:5c:c6:f3:b9:05:92:e3:
                    65:f1:1f:e2:f8:e3:0f:e8:92:9e:0f:85:33:98:81:
                    9d:3c:6e:ff:23:ac:57:ca:94:cb:ec:1b:9e:89:e6:
                    1f:7e:3f:ab:14:cb:cd:d2:97:99:46:aa:28:ec:48:
                    4e:e6:9b:82:17:da:07:9f:f5:6d:3f:6e:24:39:d2:
                    f6:c8:30:60:87:fe:28:80:30:0e:83:30:ba:a9:b3:
                    41:f2:0e:ac:f9:4f:45:07:02:2f:f1:76:11:06:33:
                    3d:c7:dd:2d:12:04:7a:92:94:f6:3e:31:0b:db:5e:
                    3b:c2:ff:d9:d9:23:8a:43:ee:e7:52:17:e8:bc:03:
                    95:08:43:43:eb:4c:37:32:e0:eb:66:7a:36:97:65:
                    af:0a:51:20:7c:98:27:d8:8e:a1:ce:b1:91:eb:82:
                    45:9f:dc:95:0b:c7:80:81:6a:4e:a2:ce:67:b2:02:
                    90:a5
                Exponent: 65537 (0x10001)
        X509v3 extensions:
            X509v3 Basic Constraints: 
                CA:FALSE
            X509v3 Subject Key Identifier: 
                2D:D2:9F:4C:6A:C2:C3:B1:F6:E7:32:E4:DC:70:FA:00:4A:40:96:FF
            X509v3 Authority Key Identifier: 
                keyid:AD:9F:2E:18:C2:8E:15:00:47:07:DA:B9:45:77:FC:40:86:03:49:DF
                DirName:/CN=ChangeMe
                serial:CF:7B:9B:42:5F:59:AA:1B

            X509v3 Extended Key Usage: 
                TLS Web Client Authentication
            X509v3 Key Usage: 
                Digital Signature
    Signature Algorithm: sha256WithRSAEncryption
         ad:14:a7:dd:5f:57:2d:09:2c:73:53:d2:a9:8b:67:01:16:5b:
         26:a9:e2:f9:2c:9a:bf:ad:a3:6d:ca:92:4a:c8:0b:7f:5f:2b:
         6c:a6:b3:d5:24:93:a6:ee:62:d6:cb:ba:0b:10:e8:5c:80:01:
         dc:d1:0b:9d:95:f0:9d:82:d2:5e:59:44:40:8c:df:1d:9e:79:
         5d:6a:c7:2b:4a:0a:40:c7:06:92:91:ab:1d:d8:02:5a:91:d7:
         70:14:f3:1c:8c:27:00:11:47:fb:b1:d2:88:e4:c3:bc:44:96:
         b7:8a:05:3c:d9:93:f9:9d:63:1d:79:c0:a2:5c:6d:64:41:b0:
         dd:9b:7a:04:b9:f0:58:1c:79:87:a4:36:69:75:96:f9:2e:5d:
         0b:76:2a:c7:3d:cd:4a:83:9c:87:dd:21:ef:64:05:eb:c2:00:
         9a:2e:c0:af:46:b7:5d:31:a0:23:92:f3:44:0b:9b:5a:f8:69:
         eb:d4:96:5b:50:c1:5d:a7:ce:43:fe:7b:99:0b:2d:c8:94:43:
         d4:3d:d3:b3:2f:ac:e4:68:91:8a:11:ba:d0:b5:52:42:26:07:
         e9:66:f1:25:23:16:f8:a5:8b:ca:5c:c0:0b:6b:34:93:97:6c:
         f4:2a:9a:a7:8a:87:a7:8a:af:e7:9e:32:26:60:1e:4a:af:f4:
         a1:50:4c:9b
-----BEGIN CERTIFICATE-----
MIIDWDCCAkCgAwIBAgIQYawiKegnmF51JkwMgBRLXjANBgkqhkiG9w0BAQsFADAT
MREwDwYDVQQDDAhDaGFuZ2VNZTAeFw0xODA1MDcxNDQwMzJaFw0yODA1MDQxNDQw
MzJaMCYxJDAiBgNVBAMMG215dnBuLTIwMC4xLjEuMTEtV0lOQy0wMC0wMDCCASIw
DQYJKoZIhvcNAQEBBQADggEPADCCAQoCggEBALOkx4FW6DVB2IHB0WLylsOZ7Bhc
Tivw7bP/dcFd6HkE+BRAkRdqhiobmt4NNgmAYMz1nAequFMndYAeMA4Cfmygt0SZ
/9zHdUKvEtY/MWloriNcxvO5BZLjZfEf4vjjD+iSng+FM5iBnTxu/yOsV8qUy+wb
nonmH34/qxTLzdKXmUaqKOxITuabghfaB5/1bT9uJDnS9sgwYIf+KIAwDoMwuqmz
QfIOrPlPRQcCL/F2EQYzPcfdLRIEepKU9j4xC9teO8L/2dkjikPu51IX6LwDlQhD
Q+tMNzLg62Z6NpdlrwpRIHyYJ9iOoc6xkeuCRZ/clQvHgIFqTqLOZ7ICkKUCAwEA
AaOBlDCBkTAJBgNVHRMEAjAAMB0GA1UdDgQWBBQt0p9MasLDsfbnMuTccPoASkCW
/zBDBgNVHSMEPDA6gBStny4Ywo4VAEcH2rlFd/xAhgNJ36EXpBUwEzERMA8GA1UE
AwwIQ2hhbmdlTWWCCQDPe5tCX1mqGzATBgNVHSUEDDAKBggrBgEFBQcDAjALBgNV
HQ8EBAMCB4AwDQYJKoZIhvcNAQELBQADggEBAK0Up91fVy0JLHNT0qmLZwEWWyap
4vksmr+to23KkkrIC39fK2yms9Ukk6buYtbLugsQ6FyAAdzRC52V8J2C0l5ZRECM
3x2eeV1qxytKCkDHBpKRqx3YAlqR13AU8xyMJwARR/ux0ojkw7xElreKBTzZk/md
Yx15wKJcbWRBsN2begS58FgceYekNml1lvkuXQt2Ksc9zUqDnIfdIe9kBevCAJou
wK9Gt10xoCOS80QLm1r4aevUlltQwV2nzkP+e5kLLciUQ9Q907MvrORokYoRutC1
UkImB+lm8SUjFvili8pcwAtrNJOXbPQqmqeKh6eKr+eeMiZgHkqv9KFQTJs=
-----END CERTIFICATE-----
