Certificate:
    Data:
        Version: 3 (0x2)
        Serial Number:
            7b:55:26:e1:2d:02:a7:0d:03:7f:e8:e3:b5:97:34:0c
    Signature Algorithm: sha256WithRSAEncryption
        Issuer: CN=ChangeMe
        Validity
            Not Before: Apr 20 15:26:25 2018 GMT
            Not After : Apr 17 15:26:25 2028 GMT
        Subject: CN=myvpn-200.1.1.124
        Subject Public Key Info:
            Public Key Algorithm: rsaEncryption
                Public-Key: (2048 bit)
                Modulus:
                    00:d8:d1:e5:11:0f:00:5b:b0:0f:39:a2:81:c8:96:
                    1d:13:44:13:d4:4f:19:60:38:df:1f:1a:08:5d:7c:
                    54:7d:26:1d:1c:1d:50:28:94:84:1a:f8:7e:2e:5f:
                    1c:cb:f4:71:8c:56:f5:fb:cd:78:43:6e:ed:92:b3:
                    6a:92:90:10:24:ba:0f:81:02:6c:5f:7c:03:3a:72:
                    75:39:f4:70:c6:b0:cb:60:55:79:2f:23:73:c8:33:
                    f3:cd:1e:86:06:50:3a:7d:03:03:59:d9:8f:13:6e:
                    28:ce:f6:36:e0:11:76:f0:31:4f:79:7f:f4:79:2f:
                    cf:de:04:fa:8f:74:87:5f:b0:b0:17:c7:1a:1a:e4:
                    4c:19:d1:71:ed:5d:e0:4a:aa:cb:dd:c4:39:58:01:
                    82:7b:98:7d:a2:b5:eb:d5:73:ea:23:39:91:ad:7b:
                    af:43:6d:a5:97:c5:6f:40:bd:a1:78:27:55:04:3b:
                    2a:c0:30:1f:19:62:6e:64:7f:0b:5c:30:d0:eb:02:
                    a9:d5:ec:b6:bc:67:15:25:e9:ef:96:1f:d0:f6:f1:
                    a1:f3:91:f4:b6:63:7d:10:43:13:b6:af:07:80:c1:
                    79:68:3f:a6:3e:f6:37:d9:92:71:78:ea:5a:e9:dc:
                    ab:a9:15:13:8f:67:67:37:28:11:ec:34:bb:f6:47:
                    b0:a1
                Exponent: 65537 (0x10001)
        X509v3 extensions:
            X509v3 Basic Constraints: 
                CA:FALSE
            X509v3 Subject Key Identifier: 
                24:EA:F4:C2:CE:B6:44:B8:24:70:06:D1:45:77:9D:F9:F0:78:1E:BF
            X509v3 Authority Key Identifier: 
                keyid:AD:9F:2E:18:C2:8E:15:00:47:07:DA:B9:45:77:FC:40:86:03:49:DF
                DirName:/CN=ChangeMe
                serial:CF:7B:9B:42:5F:59:AA:1B

            X509v3 Extended Key Usage: 
                TLS Web Client Authentication
            X509v3 Key Usage: 
                Digital Signature
    Signature Algorithm: sha256WithRSAEncryption
         5b:e3:45:6e:01:1c:f9:19:e5:03:20:93:3a:e6:68:c4:6e:4d:
         eb:f4:56:cb:10:fe:37:06:c5:32:06:0f:1a:5b:88:16:c3:65:
         b7:b3:98:02:23:7e:76:5b:8b:71:7b:db:6b:58:b7:97:74:ed:
         69:ca:a3:1e:64:e7:3f:6b:0b:5f:9a:54:f1:cb:20:76:54:51:
         52:23:49:ae:85:3b:a9:64:34:07:ed:06:1b:31:b7:ac:c0:31:
         82:d4:1f:93:39:35:0f:59:ec:94:4a:87:19:06:fd:46:81:24:
         ff:af:a5:7a:03:a1:5f:c2:11:e6:ca:bf:1f:a5:4c:34:7d:0f:
         18:82:a1:0a:27:04:5f:f1:40:79:11:99:09:25:ec:b7:2e:94:
         ce:42:98:f8:85:ac:a8:70:1f:88:7b:3b:94:5f:c0:0a:6d:92:
         cd:f2:39:50:e4:32:fc:4b:fd:a8:a4:4b:89:dc:70:ab:fc:5b:
         e3:05:b3:96:df:68:14:a2:69:b9:a1:fd:f9:15:08:15:9a:05:
         22:fe:bb:a4:00:fc:c8:09:67:b5:d6:bf:23:06:76:4a:f3:30:
         6e:98:d1:2c:32:49:b3:c7:0c:24:31:d2:27:ae:4e:a5:38:1b:
         e1:74:17:c5:e7:0a:34:4d:9e:0c:46:25:d9:c5:14:a0:bd:f4:
         21:cf:dc:2c
-----BEGIN CERTIFICATE-----
MIIDTjCCAjagAwIBAgIQe1Um4S0Cpw0Df+jjtZc0DDANBgkqhkiG9w0BAQsFADAT
MREwDwYDVQQDDAhDaGFuZ2VNZTAeFw0xODA0MjAxNTI2MjVaFw0yODA0MTcxNTI2
MjVaMBwxGjAYBgNVBAMMEW15dnBuLTIwMC4xLjEuMTI0MIIBIjANBgkqhkiG9w0B
AQEFAAOCAQ8AMIIBCgKCAQEA2NHlEQ8AW7APOaKByJYdE0QT1E8ZYDjfHxoIXXxU
fSYdHB1QKJSEGvh+Ll8cy/RxjFb1+814Q27tkrNqkpAQJLoPgQJsX3wDOnJ1OfRw
xrDLYFV5LyNzyDPzzR6GBlA6fQMDWdmPE24ozvY24BF28DFPeX/0eS/P3gT6j3SH
X7CwF8caGuRMGdFx7V3gSqrL3cQ5WAGCe5h9orXr1XPqIzmRrXuvQ22ll8VvQL2h
eCdVBDsqwDAfGWJuZH8LXDDQ6wKp1ey2vGcVJenvlh/Q9vGh85H0tmN9EEMTtq8H
gMF5aD+mPvY32ZJxeOpa6dyrqRUTj2dnNygR7DS79kewoQIDAQABo4GUMIGRMAkG
A1UdEwQCMAAwHQYDVR0OBBYEFCTq9MLOtkS4JHAG0UV3nfnweB6/MEMGA1UdIwQ8
MDqAFK2fLhjCjhUARwfauUV3/ECGA0nfoRekFTATMREwDwYDVQQDDAhDaGFuZ2VN
ZYIJAM97m0JfWaobMBMGA1UdJQQMMAoGCCsGAQUFBwMCMAsGA1UdDwQEAwIHgDAN
BgkqhkiG9w0BAQsFAAOCAQEAW+NFbgEc+RnlAyCTOuZoxG5N6/RWyxD+NwbFMgYP
GluIFsNlt7OYAiN+dluLcXvba1i3l3TtacqjHmTnP2sLX5pU8csgdlRRUiNJroU7
qWQ0B+0GGzG3rMAxgtQfkzk1D1nslEqHGQb9RoEk/6+legOhX8IR5sq/H6VMNH0P
GIKhCicEX/FAeRGZCSXsty6UzkKY+IWsqHAfiHs7lF/ACm2SzfI5UOQy/Ev9qKRL
idxwq/xb4wWzlt9oFKJpuaH9+RUIFZoFIv67pAD8yAlntda/IwZ2SvMwbpjRLDJJ
s8cMJDHSJ65OpTgb4XQXxecKNE2eDEYl2cUUoL30Ic/cLA==
-----END CERTIFICATE-----
