Certificate:
    Data:
        Version: 3 (0x2)
        Serial Number:
            b3:e0:8b:bc:79:28:7c:c7:fc:19:86:98:8d:f0:80:24
    Signature Algorithm: sha256WithRSAEncryption
        Issuer: CN=ChangeMe
        Validity
            Not Before: Apr  4 03:27:47 2018 GMT
            Not After : Apr  1 03:27:47 2028 GMT
        Subject: CN=client-ben
        Subject Public Key Info:
            Public Key Algorithm: rsaEncryption
                Public-Key: (2048 bit)
                Modulus:
                    00:c7:ab:8c:60:3a:e4:6c:b1:40:9d:77:93:b3:76:
                    ed:aa:c8:fd:8b:76:c8:b0:37:8e:c0:62:fa:1e:34:
                    79:65:bf:d2:63:72:82:17:7c:86:cf:7f:06:18:79:
                    b6:12:ca:94:0f:80:5d:4f:86:ce:b9:d5:65:89:c9:
                    7e:01:fa:34:e0:ee:94:15:46:5f:c5:bc:9a:b2:f9:
                    49:42:64:4f:a2:e4:e5:fa:08:1f:35:b3:f8:db:ce:
                    10:d3:fa:16:ea:df:62:37:99:9b:77:f1:a4:fc:a7:
                    be:aa:c7:bd:e6:e4:28:48:30:22:7b:fe:bb:98:f0:
                    92:89:0e:17:1a:9c:49:66:26:8c:83:d9:69:9f:e7:
                    44:98:a4:c3:73:c2:c7:87:98:ba:b1:3c:28:32:20:
                    b2:cf:b4:0d:47:e1:f1:63:d2:0e:30:d5:de:f4:e5:
                    5d:32:d4:53:ce:c4:fd:e0:18:e3:b6:e3:1d:c3:4a:
                    ed:16:28:f1:38:e0:00:6a:c8:ed:d5:f4:7d:e9:8c:
                    50:f2:1a:7c:e4:21:02:33:cf:81:e1:84:4d:04:77:
                    b4:bb:21:bb:cf:c0:73:5e:de:87:60:b5:e9:d1:c1:
                    12:0d:12:8d:1d:7d:7a:f8:f2:56:42:87:1d:3c:70:
                    be:32:2a:64:92:29:c2:17:72:12:38:e6:c3:8e:05:
                    ce:fd
                Exponent: 65537 (0x10001)
        X509v3 extensions:
            X509v3 Basic Constraints: 
                CA:FALSE
            X509v3 Subject Key Identifier: 
                10:6E:45:FE:DE:63:8A:2B:55:69:5A:FB:D1:1A:A6:E7:6C:EF:0C:04
            X509v3 Authority Key Identifier: 
                keyid:AD:9F:2E:18:C2:8E:15:00:47:07:DA:B9:45:77:FC:40:86:03:49:DF
                DirName:/CN=ChangeMe
                serial:CF:7B:9B:42:5F:59:AA:1B

            X509v3 Extended Key Usage: 
                TLS Web Client Authentication
            X509v3 Key Usage: 
                Digital Signature
    Signature Algorithm: sha256WithRSAEncryption
         64:54:6e:db:76:73:b4:15:78:3d:6c:0f:38:1d:18:1c:18:0f:
         5d:42:77:a2:aa:a1:50:d4:b8:97:39:5a:c2:4b:e5:f0:8b:4c:
         7d:cc:a8:17:bf:b8:fc:6a:55:fd:04:be:1f:88:18:7f:ff:d8:
         d0:20:cd:79:55:d5:2a:47:56:d2:73:f2:b5:60:94:5f:9f:c7:
         06:63:86:f3:bc:be:43:3b:4e:69:07:b5:be:d0:b3:97:2a:58:
         be:d4:d4:d2:cc:41:ef:4a:58:10:5a:3a:19:7c:5e:32:9f:3f:
         4a:10:9c:52:b1:0a:27:cd:e1:58:bf:80:52:26:00:ae:c2:77:
         11:20:94:73:91:b6:38:0d:e6:9e:63:6a:db:ad:f1:09:81:e3:
         f6:13:66:e3:1e:ff:82:81:e5:ac:af:fc:17:83:b2:64:0f:c3:
         a9:94:7f:a9:ed:34:42:0f:71:95:bd:94:10:2e:62:00:49:6d:
         6a:9a:3d:c7:0d:f2:1a:2d:70:cf:21:de:e7:63:2b:f6:55:8b:
         c4:1c:d5:f8:6e:25:90:14:53:ca:3d:8b:30:83:98:47:e4:55:
         67:a7:4a:2b:64:d1:05:f2:5a:fe:61:c8:ab:5f:5b:ec:16:9d:
         c6:3a:9f:99:5c:5a:24:52:fa:97:c3:aa:60:4b:ca:8c:32:d9:
         7e:08:4a:ab
-----BEGIN CERTIFICATE-----
MIIDSDCCAjCgAwIBAgIRALPgi7x5KHzH/BmGmI3wgCQwDQYJKoZIhvcNAQELBQAw
EzERMA8GA1UEAwwIQ2hhbmdlTWUwHhcNMTgwNDA0MDMyNzQ3WhcNMjgwNDAxMDMy
NzQ3WjAVMRMwEQYDVQQDDApjbGllbnQtYmVuMIIBIjANBgkqhkiG9w0BAQEFAAOC
AQ8AMIIBCgKCAQEAx6uMYDrkbLFAnXeTs3btqsj9i3bIsDeOwGL6HjR5Zb/SY3KC
F3yGz38GGHm2EsqUD4BdT4bOudVlicl+Afo04O6UFUZfxbyasvlJQmRPouTl+ggf
NbP4284Q0/oW6t9iN5mbd/Gk/Ke+qse95uQoSDAie/67mPCSiQ4XGpxJZiaMg9lp
n+dEmKTDc8LHh5i6sTwoMiCyz7QNR+HxY9IOMNXe9OVdMtRTzsT94BjjtuMdw0rt
FijxOOAAasjt1fR96YxQ8hp85CECM8+B4YRNBHe0uyG7z8BzXt6HYLXp0cESDRKN
HX16+PJWQocdPHC+MipkkinCF3ISOObDjgXO/QIDAQABo4GUMIGRMAkGA1UdEwQC
MAAwHQYDVR0OBBYEFBBuRf7eY4orVWla+9Eapuds7wwEMEMGA1UdIwQ8MDqAFK2f
LhjCjhUARwfauUV3/ECGA0nfoRekFTATMREwDwYDVQQDDAhDaGFuZ2VNZYIJAM97
m0JfWaobMBMGA1UdJQQMMAoGCCsGAQUFBwMCMAsGA1UdDwQEAwIHgDANBgkqhkiG
9w0BAQsFAAOCAQEAZFRu23ZztBV4PWwPOB0YHBgPXUJ3oqqhUNS4lzlawkvl8ItM
fcyoF7+4/GpV/QS+H4gYf//Y0CDNeVXVKkdW0nPytWCUX5/HBmOG87y+QztOaQe1
vtCzlypYvtTU0sxB70pYEFo6GXxeMp8/ShCcUrEKJ83hWL+AUiYArsJ3ESCUc5G2
OA3mnmNq263xCYHj9hNm4x7/goHlrK/8F4OyZA/DqZR/qe00Qg9xlb2UEC5iAElt
apo9xw3yGi1wzyHe52Mr9lWLxBzV+G4lkBRTyj2LMIOYR+RVZ6dKK2TRBfJa/mHI
q19b7BadxjqfmVxaJFL6l8OqYEvKjDLZfghKqw==
-----END CERTIFICATE-----
