Certificate:
    Data:
        Version: 3 (0x2)
        Serial Number:
            b4:25:0a:6f:22:ee:2b:81:da:b9:6b:4b:33:a2:09:43
    Signature Algorithm: sha256WithRSAEncryption
        Issuer: CN=ChangeMe
        Validity
            Not Before: Apr 21 01:07:26 2018 GMT
            Not After : Apr 18 01:07:26 2028 GMT
        Subject: CN=myvpn-200.1.1.118
        Subject Public Key Info:
            Public Key Algorithm: rsaEncryption
                Public-Key: (2048 bit)
                Modulus:
                    00:bd:e2:22:86:d3:fe:62:0b:82:56:c8:ce:68:52:
                    57:31:d5:f7:67:c0:f3:8c:30:b5:f7:2d:8c:56:af:
                    7e:6a:ad:c1:82:61:0f:72:50:f9:91:d2:39:76:58:
                    7f:9a:21:20:8a:68:63:84:74:5f:b8:61:23:44:8c:
                    bf:7c:bd:da:f1:79:d3:ed:7d:40:5f:f6:65:ec:ac:
                    02:22:01:67:f1:51:93:88:88:62:19:1c:5a:0e:d6:
                    ac:99:48:b8:aa:81:59:37:7f:25:2d:95:e6:cd:08:
                    52:a2:d8:83:64:05:2e:24:0f:ee:e3:b5:35:30:46:
                    4d:fd:03:0d:19:35:28:e7:88:2f:ba:3e:41:75:e4:
                    a8:31:d2:c5:7f:97:40:81:08:91:bf:fd:8a:fa:5b:
                    ec:41:c5:3d:1f:5e:43:e2:83:8d:e3:67:d8:97:2a:
                    24:a0:21:09:36:31:ed:38:da:c0:eb:88:88:4b:d8:
                    36:98:c4:f1:04:88:6b:36:bc:30:1d:04:4a:7a:97:
                    b7:44:5a:a0:ef:e7:c8:ef:b7:6f:05:40:0c:2f:ae:
                    75:14:99:2f:3d:45:20:60:af:13:e8:eb:f3:bb:26:
                    f7:8b:91:eb:00:22:96:87:09:67:77:a7:b2:62:0e:
                    96:08:46:46:63:e1:2b:63:4b:d8:59:60:82:e0:6b:
                    24:93
                Exponent: 65537 (0x10001)
        X509v3 extensions:
            X509v3 Basic Constraints: 
                CA:FALSE
            X509v3 Subject Key Identifier: 
                6C:16:3A:C6:17:C0:1E:A8:46:A8:84:F3:BE:BF:9A:3A:50:7F:E8:08
            X509v3 Authority Key Identifier: 
                keyid:AD:9F:2E:18:C2:8E:15:00:47:07:DA:B9:45:77:FC:40:86:03:49:DF
                DirName:/CN=ChangeMe
                serial:CF:7B:9B:42:5F:59:AA:1B

            X509v3 Extended Key Usage: 
                TLS Web Client Authentication
            X509v3 Key Usage: 
                Digital Signature
    Signature Algorithm: sha256WithRSAEncryption
         1d:fd:89:c1:90:f9:1a:80:ba:6e:eb:76:b2:c7:a2:de:86:9c:
         e0:e1:18:5d:e9:29:79:ae:fb:81:e6:e2:7b:b4:46:33:5f:ae:
         c5:c3:8d:49:94:1d:d6:80:cd:6e:29:01:51:78:0f:93:c1:e2:
         8a:df:16:a4:8a:d1:16:2a:4f:ae:6a:b7:fa:b5:93:19:54:7f:
         90:14:c2:4d:20:cb:5a:df:bf:bd:da:51:85:36:cf:9b:c9:3f:
         87:4b:2d:2d:3a:b1:2a:db:84:03:bd:23:3b:c6:0a:06:82:0a:
         63:89:e8:e0:53:86:bc:ec:33:f6:63:62:44:e3:5a:5a:fd:04:
         51:4a:ef:4f:7b:b7:41:fa:84:27:ec:37:77:fb:95:a9:b8:52:
         e9:a4:ce:8f:6f:51:e6:67:ed:40:a2:fb:f4:78:c8:fd:59:2c:
         a3:08:0e:dd:2b:65:4d:6e:13:29:53:f8:ed:0d:89:a8:65:dc:
         d3:40:1b:35:43:33:0c:a9:f0:7f:f2:17:29:a6:00:8b:cb:cd:
         f0:56:d2:4a:7e:80:6f:c4:3b:e8:cc:6d:68:b0:66:97:48:ae:
         f5:0d:ba:25:ab:76:e1:f8:46:3e:35:49:dc:37:8e:d2:c2:c3:
         a5:08:1c:a6:5e:71:df:1f:46:1d:cb:e6:69:c9:1e:ea:41:c7:
         68:c1:7d:3c
-----BEGIN CERTIFICATE-----
MIIDTzCCAjegAwIBAgIRALQlCm8i7iuB2rlrSzOiCUMwDQYJKoZIhvcNAQELBQAw
EzERMA8GA1UEAwwIQ2hhbmdlTWUwHhcNMTgwNDIxMDEwNzI2WhcNMjgwNDE4MDEw
NzI2WjAcMRowGAYDVQQDDBFteXZwbi0yMDAuMS4xLjExODCCASIwDQYJKoZIhvcN
AQEBBQADggEPADCCAQoCggEBAL3iIobT/mILglbIzmhSVzHV92fA84wwtfctjFav
fmqtwYJhD3JQ+ZHSOXZYf5ohIIpoY4R0X7hhI0SMv3y92vF50+19QF/2ZeysAiIB
Z/FRk4iIYhkcWg7WrJlIuKqBWTd/JS2V5s0IUqLYg2QFLiQP7uO1NTBGTf0DDRk1
KOeIL7o+QXXkqDHSxX+XQIEIkb/9ivpb7EHFPR9eQ+KDjeNn2JcqJKAhCTYx7Tja
wOuIiEvYNpjE8QSIaza8MB0ESnqXt0RaoO/nyO+3bwVADC+udRSZLz1FIGCvE+jr
87sm94uR6wAilocJZ3ensmIOlghGRmPhK2NL2FlgguBrJJMCAwEAAaOBlDCBkTAJ
BgNVHRMEAjAAMB0GA1UdDgQWBBRsFjrGF8AeqEaohPO+v5o6UH/oCDBDBgNVHSME
PDA6gBStny4Ywo4VAEcH2rlFd/xAhgNJ36EXpBUwEzERMA8GA1UEAwwIQ2hhbmdl
TWWCCQDPe5tCX1mqGzATBgNVHSUEDDAKBggrBgEFBQcDAjALBgNVHQ8EBAMCB4Aw
DQYJKoZIhvcNAQELBQADggEBAB39icGQ+RqAum7rdrLHot6GnODhGF3pKXmu+4Hm
4nu0RjNfrsXDjUmUHdaAzW4pAVF4D5PB4orfFqSK0RYqT65qt/q1kxlUf5AUwk0g
y1rfv73aUYU2z5vJP4dLLS06sSrbhAO9IzvGCgaCCmOJ6OBThrzsM/ZjYkTjWlr9
BFFK7097t0H6hCfsN3f7lam4Uumkzo9vUeZn7UCi+/R4yP1ZLKMIDt0rZU1uEylT
+O0Niahl3NNAGzVDMwyp8H/yFymmAIvLzfBW0kp+gG/EO+jMbWiwZpdIrvUNuiWr
duH4Rj41Sdw3jtLCw6UIHKZecd8fRh3L5mnJHupBx2jBfTw=
-----END CERTIFICATE-----
