Certificate:
    Data:
        Version: 3 (0x2)
        Serial Number:
            bc:0a:19:0e:3b:87:da:91:a9:b1:d8:19:2f:80:6c:9d
    Signature Algorithm: sha256WithRSAEncryption
        Issuer: CN=ChangeMe
        Validity
            Not Before: Mar 30 13:59:30 2018 GMT
            Not After : Mar 27 13:59:30 2028 GMT
        Subject: CN=server
        Subject Public Key Info:
            Public Key Algorithm: rsaEncryption
                Public-Key: (2048 bit)
                Modulus:
                    00:aa:e6:30:a5:21:7c:8a:8e:b8:87:b8:bc:56:a6:
                    c4:6b:b2:8c:22:c5:bf:29:b5:9b:41:0b:1d:33:5f:
                    41:27:dc:2d:68:28:31:b7:2f:c7:33:2c:e5:26:60:
                    18:76:e1:5b:07:b5:d1:3a:38:1c:d8:03:2c:5e:83:
                    00:eb:a1:24:7b:08:4e:6d:34:47:16:da:ae:b3:f5:
                    ec:3c:cb:58:f4:a1:8c:b3:e1:54:4c:2e:ed:1f:68:
                    55:ae:47:46:9b:8a:ce:3a:7f:33:63:50:77:f3:64:
                    20:99:f3:51:32:30:bc:03:92:77:98:b1:4c:62:9c:
                    ce:85:05:9b:83:c7:e7:05:1b:25:9d:dc:43:ea:c4:
                    cd:76:2c:81:88:9c:f0:bd:00:24:7a:52:dc:29:63:
                    f2:da:aa:bc:b3:6d:57:ae:e4:5e:7a:b3:9c:d7:80:
                    5b:c3:eb:4f:d8:5b:c8:47:85:02:f5:cb:4c:b3:94:
                    e1:08:4e:d7:58:52:a7:d6:fa:65:e6:9c:8f:8b:72:
                    8e:11:1d:3d:b2:29:89:2e:21:88:df:eb:5a:f6:2e:
                    10:59:39:e9:81:9e:93:03:73:fa:10:4b:39:80:d1:
                    22:65:5d:34:5a:7f:75:b5:e1:ae:e0:88:97:17:fc:
                    4b:92:b9:24:82:20:42:3c:9c:26:d9:b8:d9:45:3d:
                    fe:63
                Exponent: 65537 (0x10001)
        X509v3 extensions:
            X509v3 Basic Constraints: 
                CA:FALSE
            X509v3 Subject Key Identifier: 
                BE:89:87:7E:D7:8A:00:3F:DA:C5:9D:CA:13:F3:E3:83:6B:B5:80:EF
            X509v3 Authority Key Identifier: 
                keyid:AD:9F:2E:18:C2:8E:15:00:47:07:DA:B9:45:77:FC:40:86:03:49:DF
                DirName:/CN=ChangeMe
                serial:CF:7B:9B:42:5F:59:AA:1B

            X509v3 Extended Key Usage: 
                TLS Web Server Authentication
            X509v3 Key Usage: 
                Digital Signature, Key Encipherment
            X509v3 Subject Alternative Name: 
                DNS:server
    Signature Algorithm: sha256WithRSAEncryption
         54:73:da:ef:56:46:56:f3:6e:ab:d0:93:7b:94:df:24:4d:bb:
         1f:d7:68:59:62:37:10:82:46:cb:f6:87:63:56:5c:9b:47:19:
         06:43:e0:7c:07:5a:c3:d5:94:00:53:55:0a:86:b0:c4:df:43:
         3a:e5:a8:76:49:19:bd:98:e9:38:cf:fa:48:36:1e:0f:e3:a4:
         de:f4:f3:5e:a5:57:74:25:d4:4c:1d:69:f3:b6:9e:e2:1c:d6:
         65:5f:d9:57:c1:7a:15:59:9b:ec:84:a7:bb:3c:f8:88:1f:d8:
         08:fa:df:85:fe:96:cd:e5:7f:9e:2e:b2:3f:1c:7d:c0:66:0f:
         d7:00:db:75:f3:bc:36:55:5f:30:23:c9:56:f8:1a:e8:f6:a2:
         bf:33:69:21:a8:b3:bc:25:53:de:8f:1b:c1:f3:5e:b5:43:3f:
         72:65:cc:3a:56:36:a7:6f:0e:c1:ae:36:fc:3b:18:79:e1:c4:
         80:3a:05:9f:2f:1a:f0:08:59:25:a3:e2:a9:2d:25:42:77:b7:
         24:c3:ac:b0:27:d4:b9:ad:6b:df:0e:b5:b0:f1:e0:ff:b2:f1:
         45:7e:11:2d:9f:e0:f2:ad:7a:8f:37:a8:53:94:fa:90:7d:42:
         23:56:d2:25:62:26:b9:42:95:5d:9d:cb:0f:0a:93:14:e1:5d:
         0f:e7:ac:0d
-----BEGIN CERTIFICATE-----
MIIDVzCCAj+gAwIBAgIRALwKGQ47h9qRqbHYGS+AbJ0wDQYJKoZIhvcNAQELBQAw
EzERMA8GA1UEAwwIQ2hhbmdlTWUwHhcNMTgwMzMwMTM1OTMwWhcNMjgwMzI3MTM1
OTMwWjARMQ8wDQYDVQQDDAZzZXJ2ZXIwggEiMA0GCSqGSIb3DQEBAQUAA4IBDwAw
ggEKAoIBAQCq5jClIXyKjriHuLxWpsRrsowixb8ptZtBCx0zX0En3C1oKDG3L8cz
LOUmYBh24VsHtdE6OBzYAyxegwDroSR7CE5tNEcW2q6z9ew8y1j0oYyz4VRMLu0f
aFWuR0abis46fzNjUHfzZCCZ81EyMLwDkneYsUxinM6FBZuDx+cFGyWd3EPqxM12
LIGInPC9ACR6UtwpY/LaqryzbVeu5F56s5zXgFvD60/YW8hHhQL1y0yzlOEITtdY
UqfW+mXmnI+Lco4RHT2yKYkuIYjf61r2LhBZOemBnpMDc/oQSzmA0SJlXTRaf3W1
4a7giJcX/EuSuSSCIEI8nCbZuNlFPf5jAgMBAAGjgacwgaQwCQYDVR0TBAIwADAd
BgNVHQ4EFgQUvomHfteKAD/axZ3KE/Pjg2u1gO8wQwYDVR0jBDwwOoAUrZ8uGMKO
FQBHB9q5RXf8QIYDSd+hF6QVMBMxETAPBgNVBAMMCENoYW5nZU1lggkAz3ubQl9Z
qhswEwYDVR0lBAwwCgYIKwYBBQUHAwEwCwYDVR0PBAQDAgWgMBEGA1UdEQQKMAiC
BnNlcnZlcjANBgkqhkiG9w0BAQsFAAOCAQEAVHPa71ZGVvNuq9CTe5TfJE27H9do
WWI3EIJGy/aHY1Zcm0cZBkPgfAdaw9WUAFNVCoawxN9DOuWodkkZvZjpOM/6SDYe
D+Ok3vTzXqVXdCXUTB1p87ae4hzWZV/ZV8F6FVmb7ISnuzz4iB/YCPrfhf6WzeV/
ni6yPxx9wGYP1wDbdfO8NlVfMCPJVvga6PaivzNpIaizvCVT3o8bwfNetUM/cmXM
OlY2p28Owa42/DsYeeHEgDoFny8a8AhZJaPiqS0lQne3JMOssCfUua1r3w61sPHg
/7LxRX4RLZ/g8q16jzeoU5T6kH1CI1bSJWImuUKVXZ3LDwqTFOFdD+esDQ==
-----END CERTIFICATE-----
