Certificate:
    Data:
        Version: 3 (0x2)
        Serial Number:
            d0:62:5e:38:3e:44:78:88:cb:5c:59:eb:b8:01:ad:17
    Signature Algorithm: sha256WithRSAEncryption
        Issuer: CN=ChangeMe
        Validity
            Not Before: Apr 27 19:52:21 2018 GMT
            Not After : Apr 24 19:52:21 2028 GMT
        Subject: CN=myvpn-200.1.1.122-iPhone
        Subject Public Key Info:
            Public Key Algorithm: rsaEncryption
                Public-Key: (2048 bit)
                Modulus:
                    00:a5:c9:75:df:5d:45:e5:c1:3b:bd:93:86:76:40:
                    3a:e9:a6:59:ed:96:f4:a2:8c:24:a2:cb:c0:f7:c1:
                    4d:39:13:b9:a9:37:99:c0:05:71:ac:ee:f3:57:17:
                    03:f3:f9:10:b7:c9:56:fc:2e:7d:6d:28:df:30:67:
                    33:11:13:99:97:c6:bc:9e:b4:5c:63:2d:ea:1c:4f:
                    1c:9b:25:99:93:f2:d2:85:ff:16:b4:3d:ea:ae:c8:
                    7c:37:ba:d5:15:f2:5f:4c:7b:1d:bf:a0:5e:61:81:
                    54:6c:81:67:9f:d9:e5:d3:68:68:fb:91:67:7b:93:
                    28:0a:c4:0b:73:eb:89:d1:e7:2a:cc:6a:a3:89:b8:
                    56:61:31:b3:6c:3c:00:3c:69:64:98:d7:5f:20:55:
                    93:29:09:2e:17:8a:89:51:ec:c2:eb:4b:cd:4c:9a:
                    17:c2:35:14:c6:06:32:64:7b:33:56:e2:b5:ad:48:
                    5a:42:63:63:52:30:94:72:fe:19:14:3c:74:61:cd:
                    e2:31:2d:5e:8e:f9:8c:cd:74:d9:9f:98:8c:5f:ae:
                    14:b9:fb:14:f9:66:e0:21:37:67:17:ff:70:a6:9c:
                    c5:62:91:cb:a8:48:ca:70:6d:70:a8:32:31:bb:ca:
                    cd:03:3e:63:57:50:d0:84:5d:65:d0:99:66:52:96:
                    3a:ad
                Exponent: 65537 (0x10001)
        X509v3 extensions:
            X509v3 Basic Constraints: 
                CA:FALSE
            X509v3 Subject Key Identifier: 
                EC:BB:61:99:03:48:4C:68:90:F7:A8:CA:96:25:E8:B3:CA:41:4E:62
            X509v3 Authority Key Identifier: 
                keyid:AD:9F:2E:18:C2:8E:15:00:47:07:DA:B9:45:77:FC:40:86:03:49:DF
                DirName:/CN=ChangeMe
                serial:CF:7B:9B:42:5F:59:AA:1B

            X509v3 Extended Key Usage: 
                TLS Web Client Authentication
            X509v3 Key Usage: 
                Digital Signature
    Signature Algorithm: sha256WithRSAEncryption
         b7:0a:32:82:6a:c7:27:98:99:52:9a:59:e9:c4:05:86:fb:79:
         bd:2b:d6:33:2a:0e:af:70:5a:01:d1:09:e1:91:6c:d9:9a:51:
         da:69:61:3a:74:01:3d:9c:68:1c:47:a1:83:81:68:24:0c:e7:
         e0:d2:33:2f:c2:27:bd:3b:d1:f3:53:8a:e2:0d:e9:4b:12:a4:
         06:6d:de:c4:1e:2d:8a:15:9a:1f:8b:c8:00:c2:7f:1d:35:5f:
         a6:25:a5:2f:d9:c0:18:75:9a:d5:50:2c:e6:c4:a9:f8:81:e2:
         14:7a:e7:e6:80:18:ea:17:58:98:e6:3b:b1:d5:ec:b1:8f:07:
         cc:6c:48:ab:ef:05:0a:b3:27:2b:c8:2c:21:b5:ef:d5:52:18:
         ea:26:06:8d:7f:d0:fb:e3:94:2b:4b:8c:7b:28:51:3b:4a:2d:
         99:90:66:8b:8d:d9:0f:38:5b:40:7f:5f:0a:33:b7:40:b4:cc:
         2b:0d:13:61:a8:fd:a2:66:10:6c:00:9b:4a:8a:c1:ad:af:ae:
         b6:f7:f6:6a:23:2f:b6:bc:13:26:94:c5:b5:e5:2e:43:09:57:
         a2:76:f6:9a:4d:56:2b:a3:d7:70:06:d7:15:49:98:ba:a9:af:
         8f:5d:ff:ba:5a:f5:17:47:b5:20:9f:7f:f3:69:37:1f:e1:0c:
         0a:4d:d2:53
-----BEGIN CERTIFICATE-----
MIIDVjCCAj6gAwIBAgIRANBiXjg+RHiIy1xZ67gBrRcwDQYJKoZIhvcNAQELBQAw
EzERMA8GA1UEAwwIQ2hhbmdlTWUwHhcNMTgwNDI3MTk1MjIxWhcNMjgwNDI0MTk1
MjIxWjAjMSEwHwYDVQQDDBhteXZwbi0yMDAuMS4xLjEyMi1pUGhvbmUwggEiMA0G
CSqGSIb3DQEBAQUAA4IBDwAwggEKAoIBAQClyXXfXUXlwTu9k4Z2QDrpplntlvSi
jCSiy8D3wU05E7mpN5nABXGs7vNXFwPz+RC3yVb8Ln1tKN8wZzMRE5mXxryetFxj
LeocTxybJZmT8tKF/xa0PequyHw3utUV8l9Mex2/oF5hgVRsgWef2eXTaGj7kWd7
kygKxAtz64nR5yrMaqOJuFZhMbNsPAA8aWSY118gVZMpCS4XiolR7MLrS81MmhfC
NRTGBjJkezNW4rWtSFpCY2NSMJRy/hkUPHRhzeIxLV6O+YzNdNmfmIxfrhS5+xT5
ZuAhN2cX/3CmnMVikcuoSMpwbXCoMjG7ys0DPmNXUNCEXWXQmWZSljqtAgMBAAGj
gZQwgZEwCQYDVR0TBAIwADAdBgNVHQ4EFgQU7LthmQNITGiQ96jKliXos8pBTmIw
QwYDVR0jBDwwOoAUrZ8uGMKOFQBHB9q5RXf8QIYDSd+hF6QVMBMxETAPBgNVBAMM
CENoYW5nZU1lggkAz3ubQl9ZqhswEwYDVR0lBAwwCgYIKwYBBQUHAwIwCwYDVR0P
BAQDAgeAMA0GCSqGSIb3DQEBCwUAA4IBAQC3CjKCascnmJlSmlnpxAWG+3m9K9Yz
Kg6vcFoB0QnhkWzZmlHaaWE6dAE9nGgcR6GDgWgkDOfg0jMvwie9O9HzU4riDelL
EqQGbd7EHi2KFZofi8gAwn8dNV+mJaUv2cAYdZrVUCzmxKn4geIUeufmgBjqF1iY
5jux1eyxjwfMbEir7wUKsycryCwhte/VUhjqJgaNf9D745QrS4x7KFE7Si2ZkGaL
jdkPOFtAf18KM7dAtMwrDRNhqP2iZhBsAJtKisGtr6629/ZqIy+2vBMmlMW15S5D
CVeidvaaTVYro9dwBtcVSZi6qa+PXf+6WvUXR7Ugn3/zaTcf4QwKTdJT
-----END CERTIFICATE-----
