Certificate:
    Data:
        Version: 3 (0x2)
        Serial Number:
            db:bb:34:78:3a:91:7e:2e:c0:ae:0f:cf:90:cf:f7:0d
    Signature Algorithm: sha256WithRSAEncryption
        Issuer: CN=ChangeMe
        Validity
            Not Before: Apr 20 16:16:29 2018 GMT
            Not After : Apr 17 16:16:29 2028 GMT
        Subject: CN=myvpn-200.1.1.174
        Subject Public Key Info:
            Public Key Algorithm: rsaEncryption
                Public-Key: (2048 bit)
                Modulus:
                    00:c6:24:d5:e2:cc:eb:d2:18:bc:ba:4b:4e:fd:10:
                    32:4d:05:2f:d8:91:41:fb:4f:81:48:7d:e0:15:e4:
                    74:93:6e:85:99:fb:b4:32:10:da:b9:64:75:73:72:
                    01:b9:70:8a:c4:1c:fc:f3:6b:14:12:a7:b7:50:2c:
                    12:ad:48:5c:49:2d:c1:7c:68:7f:94:e9:f9:12:71:
                    b9:37:f3:2c:2b:b7:98:5b:91:f5:9c:bf:6e:e1:58:
                    40:a0:dd:0c:86:5a:fb:80:02:58:c9:f8:db:14:89:
                    c9:fe:74:1b:c5:c6:ea:04:af:ea:58:1b:05:bc:bf:
                    6d:32:d2:11:d4:3d:1c:ec:05:66:17:ff:97:e3:b7:
                    46:ca:92:c6:50:90:d0:13:f7:a6:a2:e8:61:be:87:
                    76:2e:5f:ee:05:75:6b:56:40:81:48:27:38:2c:bc:
                    d8:1e:7e:ef:d0:49:04:dc:3f:77:d5:ef:c5:55:1d:
                    9d:d8:95:2b:60:3f:50:4a:5c:10:96:da:a3:66:10:
                    d9:8f:44:cb:b4:f9:80:39:e5:d2:d0:cd:c5:50:17:
                    ed:30:e0:6b:4f:26:5a:13:46:de:bd:18:9b:23:00:
                    84:9a:49:f6:43:40:86:37:6f:13:0e:78:29:70:39:
                    5a:59:2a:93:7c:0c:31:60:45:e4:7e:4b:2f:60:df:
                    2f:11
                Exponent: 65537 (0x10001)
        X509v3 extensions:
            X509v3 Basic Constraints: 
                CA:FALSE
            X509v3 Subject Key Identifier: 
                38:64:8F:38:28:0E:01:CE:C2:33:28:8C:FB:73:75:6E:EA:A2:71:BF
            X509v3 Authority Key Identifier: 
                keyid:AD:9F:2E:18:C2:8E:15:00:47:07:DA:B9:45:77:FC:40:86:03:49:DF
                DirName:/CN=ChangeMe
                serial:CF:7B:9B:42:5F:59:AA:1B

            X509v3 Extended Key Usage: 
                TLS Web Client Authentication
            X509v3 Key Usage: 
                Digital Signature
    Signature Algorithm: sha256WithRSAEncryption
         59:58:4f:34:16:03:ee:56:4d:c7:8c:36:93:49:d2:da:f0:34:
         15:31:d1:5f:28:e3:23:be:1f:81:7f:4b:ac:ea:3f:3f:a9:96:
         54:ba:61:09:38:0e:e5:dd:ef:f7:b5:f5:e0:1a:63:be:9b:e4:
         27:55:11:84:11:01:92:91:e6:3c:da:82:d2:d0:7a:4c:67:ed:
         48:b5:af:03:d6:f7:a0:a1:bc:4f:2c:0b:cb:28:41:11:e6:98:
         85:bf:08:f1:ee:f2:f3:41:ab:94:5d:85:b7:2e:c5:0e:2f:38:
         85:dd:c5:3b:25:c5:8b:80:10:c3:4e:be:2f:f3:9f:83:6e:15:
         f2:f4:c3:19:02:1a:b9:3c:ef:2d:08:dd:27:a4:ea:be:ed:ba:
         31:57:9a:6b:51:2d:fc:28:e6:92:9b:14:27:e9:34:00:a1:ba:
         79:40:a4:e6:05:9c:ca:4c:f9:b2:59:f4:70:e9:41:0f:5a:79:
         14:b0:ea:bf:6a:c7:76:5d:c1:1e:38:b4:93:a9:10:25:a9:0f:
         a8:7a:62:5b:02:80:71:22:ea:d6:30:ac:57:86:05:e5:3e:e2:
         c0:96:13:f7:14:3a:85:5d:08:6f:60:32:ae:16:c7:bf:52:a4:
         40:60:66:dc:f0:ac:78:bf:c2:e1:75:2f:02:c5:cc:3b:e2:89:
         b8:96:4d:a9
-----BEGIN CERTIFICATE-----
MIIDTzCCAjegAwIBAgIRANu7NHg6kX4uwK4Pz5DP9w0wDQYJKoZIhvcNAQELBQAw
EzERMA8GA1UEAwwIQ2hhbmdlTWUwHhcNMTgwNDIwMTYxNjI5WhcNMjgwNDE3MTYx
NjI5WjAcMRowGAYDVQQDDBFteXZwbi0yMDAuMS4xLjE3NDCCASIwDQYJKoZIhvcN
AQEBBQADggEPADCCAQoCggEBAMYk1eLM69IYvLpLTv0QMk0FL9iRQftPgUh94BXk
dJNuhZn7tDIQ2rlkdXNyAblwisQc/PNrFBKnt1AsEq1IXEktwXxof5Tp+RJxuTfz
LCu3mFuR9Zy/buFYQKDdDIZa+4ACWMn42xSJyf50G8XG6gSv6lgbBby/bTLSEdQ9
HOwFZhf/l+O3RsqSxlCQ0BP3pqLoYb6Hdi5f7gV1a1ZAgUgnOCy82B5+79BJBNw/
d9XvxVUdndiVK2A/UEpcEJbao2YQ2Y9Ey7T5gDnl0tDNxVAX7TDga08mWhNG3r0Y
myMAhJpJ9kNAhjdvEw54KXA5Wlkqk3wMMWBF5H5LL2DfLxECAwEAAaOBlDCBkTAJ
BgNVHRMEAjAAMB0GA1UdDgQWBBQ4ZI84KA4BzsIzKIz7c3Vu6qJxvzBDBgNVHSME
PDA6gBStny4Ywo4VAEcH2rlFd/xAhgNJ36EXpBUwEzERMA8GA1UEAwwIQ2hhbmdl
TWWCCQDPe5tCX1mqGzATBgNVHSUEDDAKBggrBgEFBQcDAjALBgNVHQ8EBAMCB4Aw
DQYJKoZIhvcNAQELBQADggEBAFlYTzQWA+5WTceMNpNJ0trwNBUx0V8o4yO+H4F/
S6zqPz+pllS6YQk4DuXd7/e19eAaY76b5CdVEYQRAZKR5jzagtLQekxn7Ui1rwPW
96ChvE8sC8soQRHmmIW/CPHu8vNBq5RdhbcuxQ4vOIXdxTslxYuAEMNOvi/zn4Nu
FfL0wxkCGrk87y0I3Sek6r7tujFXmmtRLfwo5pKbFCfpNAChunlApOYFnMpM+bJZ
9HDpQQ9aeRSw6r9qx3ZdwR44tJOpECWpD6h6YlsCgHEi6tYwrFeGBeU+4sCWE/cU
OoVdCG9gMq4Wx79SpEBgZtzwrHi/wuF1LwLFzDviibiWTak=
-----END CERTIFICATE-----
