Certificate:
    Data:
        Version: 3 (0x2)
        Serial Number:
            f7:e7:46:ce:a5:3f:e4:2c:74:7b:f6:c2:64:62:f8:5c
    Signature Algorithm: sha256WithRSAEncryption
        Issuer: CN=ChangeMe
        Validity
            Not Before: Apr 23 17:51:53 2018 GMT
            Not After : Apr 20 17:51:53 2028 GMT
        Subject: CN=myvpn-200.1.1.80
        Subject Public Key Info:
            Public Key Algorithm: rsaEncryption
                Public-Key: (2048 bit)
                Modulus:
                    00:b1:87:b0:46:20:ef:20:79:3b:16:9e:42:56:c9:
                    2a:07:2c:be:64:0c:6b:d5:64:2f:36:c3:50:1b:13:
                    47:ef:04:ae:ca:aa:e1:4c:ac:4a:5d:11:85:14:d5:
                    06:69:d7:cb:f5:ce:66:e1:7b:e8:4b:81:24:16:1b:
                    22:db:ee:8e:8a:d6:41:1f:61:47:50:4f:8c:98:b5:
                    25:fb:6f:3e:98:90:4f:bb:8e:fe:f8:f6:de:ec:d9:
                    b0:b8:b7:d5:8c:10:39:02:00:e8:5d:8d:0d:b1:7e:
                    01:ff:c5:e3:a7:61:9e:5e:53:f5:1b:5b:df:9e:5d:
                    07:0f:ed:fd:82:81:6e:ee:4a:e6:6f:81:d4:23:58:
                    f8:30:db:6b:03:45:74:f1:c0:75:f1:b7:bb:e0:87:
                    8d:d0:75:87:19:c6:89:36:05:af:b1:04:f4:73:51:
                    73:75:00:29:b6:f0:0f:b8:db:26:2e:7b:47:17:cf:
                    a9:77:99:cf:b5:19:e7:56:4c:60:3b:d4:62:8c:dc:
                    7b:9c:1d:f4:58:b5:a8:0d:32:f7:90:a7:2e:85:27:
                    8f:05:2f:d1:d2:b7:1a:6e:2a:80:00:0d:1e:49:b7:
                    b2:ed:6f:16:ae:4f:fa:db:d7:07:0a:52:bb:12:c0:
                    a1:3f:e0:cf:6a:63:2f:66:b9:e8:98:a4:b6:78:f9:
                    82:55
                Exponent: 65537 (0x10001)
        X509v3 extensions:
            X509v3 Basic Constraints: 
                CA:FALSE
            X509v3 Subject Key Identifier: 
                CC:E1:C0:FD:FD:52:8E:FD:8A:96:F8:1D:FF:AE:92:A4:F5:17:BC:6A
            X509v3 Authority Key Identifier: 
                keyid:AD:9F:2E:18:C2:8E:15:00:47:07:DA:B9:45:77:FC:40:86:03:49:DF
                DirName:/CN=ChangeMe
                serial:CF:7B:9B:42:5F:59:AA:1B

            X509v3 Extended Key Usage: 
                TLS Web Client Authentication
            X509v3 Key Usage: 
                Digital Signature
    Signature Algorithm: sha256WithRSAEncryption
         9e:7f:f6:61:19:e0:38:7c:fe:d1:4d:01:75:b2:5b:b1:04:ee:
         1a:6d:62:07:31:4d:a7:27:f8:d8:67:14:18:85:27:7e:39:e6:
         cb:63:6f:f9:0d:cd:bf:73:0b:1c:f4:38:c4:ae:31:17:f4:f1:
         fd:2c:4b:ca:f8:c6:ce:c4:84:2d:7f:2f:68:45:42:81:bd:c5:
         f2:bc:7c:44:41:98:a2:a0:98:b5:d8:ff:6e:18:23:1f:6f:0c:
         bd:d1:30:42:e5:54:42:73:3f:5f:b7:f0:31:63:d5:db:d3:f2:
         72:c6:ec:5f:14:7b:9e:60:63:ff:f0:b8:1a:6d:29:87:28:57:
         43:68:cf:79:3d:83:02:be:a8:2a:45:0a:50:0c:c0:37:3f:e7:
         eb:e9:71:82:1b:72:0b:3e:d4:5d:0a:43:76:70:f0:bf:eb:2f:
         e3:de:9d:30:79:77:e4:f2:c9:aa:af:a2:b9:a2:cf:01:e5:91:
         49:af:cc:e3:1f:c2:56:f4:0d:95:4b:e1:ee:40:cd:16:e5:8e:
         53:7a:22:9f:c5:d5:d2:5f:60:91:da:24:9e:95:fb:82:8b:01:
         65:31:6f:0d:af:1f:46:5b:bd:28:4a:e8:11:0e:b0:ef:69:42:
         44:69:fe:d4:df:22:06:d8:8f:51:92:34:74:58:3c:60:8a:bb:
         98:3e:a6:1a
-----BEGIN CERTIFICATE-----
MIIDTjCCAjagAwIBAgIRAPfnRs6lP+QsdHv2wmRi+FwwDQYJKoZIhvcNAQELBQAw
EzERMA8GA1UEAwwIQ2hhbmdlTWUwHhcNMTgwNDIzMTc1MTUzWhcNMjgwNDIwMTc1
MTUzWjAbMRkwFwYDVQQDDBBteXZwbi0yMDAuMS4xLjgwMIIBIjANBgkqhkiG9w0B
AQEFAAOCAQ8AMIIBCgKCAQEAsYewRiDvIHk7Fp5CVskqByy+ZAxr1WQvNsNQGxNH
7wSuyqrhTKxKXRGFFNUGadfL9c5m4XvoS4EkFhsi2+6OitZBH2FHUE+MmLUl+28+
mJBPu47++Pbe7NmwuLfVjBA5AgDoXY0NsX4B/8Xjp2GeXlP1G1vfnl0HD+39goFu
7krmb4HUI1j4MNtrA0V08cB18be74IeN0HWHGcaJNgWvsQT0c1FzdQAptvAPuNsm
LntHF8+pd5nPtRnnVkxgO9RijNx7nB30WLWoDTL3kKcuhSePBS/R0rcabiqAAA0e
Sbey7W8Wrk/629cHClK7EsChP+DPamMvZrnomKS2ePmCVQIDAQABo4GUMIGRMAkG
A1UdEwQCMAAwHQYDVR0OBBYEFMzhwP39Uo79ipb4Hf+ukqT1F7xqMEMGA1UdIwQ8
MDqAFK2fLhjCjhUARwfauUV3/ECGA0nfoRekFTATMREwDwYDVQQDDAhDaGFuZ2VN
ZYIJAM97m0JfWaobMBMGA1UdJQQMMAoGCCsGAQUFBwMCMAsGA1UdDwQEAwIHgDAN
BgkqhkiG9w0BAQsFAAOCAQEAnn/2YRngOHz+0U0BdbJbsQTuGm1iBzFNpyf42GcU
GIUnfjnmy2Nv+Q3Nv3MLHPQ4xK4xF/Tx/SxLyvjGzsSELX8vaEVCgb3F8rx8REGY
oqCYtdj/bhgjH28MvdEwQuVUQnM/X7fwMWPV29PycsbsXxR7nmBj//C4Gm0phyhX
Q2jPeT2DAr6oKkUKUAzANz/n6+lxghtyCz7UXQpDdnDwv+sv496dMHl35PLJqq+i
uaLPAeWRSa/M4x/CVvQNlUvh7kDNFuWOU3oin8XV0l9gkdoknpX7gosBZTFvDa8f
Rlu9KEroEQ6w72lCRGn+1N8iBtiPUZI0dFg8YIq7mD6mGg==
-----END CERTIFICATE-----
